; Listing generated by Microsoft (R) Optimizing Compiler Version 17.00.50727.1 

include listing.inc

INCLUDELIB LIBCMT
INCLUDELIB OLDNAMES

_DATA	SEGMENT
$SG82485 DB	'self', 00H
	ORG $+11
$SG82494 DB	'RUNTIME ERROR 24 : Using private attribute from outside '
	DB	'the class ', 00H
	ORG $+1
$SG82528 DB	'NULL', 00H
	ORG $+7
$SG82599 DB	0aH, 'Error (E3) : Deleting scope while no scope! ', 0aH, 00H
_DATA	ENDS
PUBLIC	simple_vm_newscope
PUBLIC	simple_vm_findvar
PUBLIC	simple_vm_findvar2
PUBLIC	simple_vm_newvar
PUBLIC	simple_vm_newvar2
PUBLIC	simple_vm_addnewnumbervar
PUBLIC	simple_vm_addnewstringvar
PUBLIC	simple_vm_deletescope
PUBLIC	simple_vm_addnewpointervar
PUBLIC	simple_vm_newtempvar
PUBLIC	simple_vm_addnewstringvar2
PUBLIC	simple_vm_newtempvar2
PUBLIC	simple_vm_addnewcpointervar
PUBLIC	simple_vm_newglobalscope
PUBLIC	simple_vm_endglobalscope
PUBLIC	simple_vm_setglobalscope
PUBLIC	simple_vm_getglobalscope
EXTRN	exit:PROC
EXTRN	printf:PROC
EXTRN	strcmp:PROC
EXTRN	simple_itemarray_setpointer:PROC
EXTRN	simple_list_getitem:PROC
EXTRN	simple_list_deleteitem_gc:PROC
EXTRN	simple_list_setint_gc:PROC
EXTRN	simple_list_addint_gc:PROC
EXTRN	simple_list_setpointer_gc:PROC
EXTRN	simple_list_addpointer_gc:PROC
EXTRN	simple_list_setdouble_gc:PROC
EXTRN	simple_list_setstsimple_gc:PROC
EXTRN	simple_list_setstring2_gc:PROC
EXTRN	simple_list_addstring_gc:PROC
EXTRN	simple_list_newlist_gc:PROC
EXTRN	simple_list_setlist_gc:PROC
EXTRN	simple_list_getlist:PROC
EXTRN	simple_list_islist:PROC
EXTRN	simple_list_deleteallitems_gc:PROC
EXTRN	simple_list_findstring:PROC
EXTRN	simple_list_genhashtable2_gc:PROC
EXTRN	simple_list_copy:PROC
EXTRN	simple_hashtable_findpointer:PROC
EXTRN	simple_hashtable_new:PROC
EXTRN	simple_hashtable_newpointer:PROC
EXTRN	simple_vm_error2:PROC
EXTRN	simple_vm_addglobalvariables:PROC
EXTRN	simple_vm_oop_callmethodinsideclass:PROC
EXTRN	simple_vm_oop_setget:PROC
EXTRN	simple_vm_oop_objvarfromobjlist:PROC
EXTRN	simple_vm_oop_objtypefromobjlist:PROC
EXTRN	simple_vm_oop_objitemfromobjlist:PROC
EXTRN	simple_vm_gc_checkreferences:PROC
EXTRN	simple_vm_gc_checknewreference:PROC
EXTRN	_fltused:DWORD
pdata	SEGMENT
$pdata$simple_vm_newscope DD imagerel $LN3
	DD	imagerel $LN3+142
	DD	imagerel $unwind$simple_vm_newscope
$pdata$simple_vm_findvar DD imagerel $LN23
	DD	imagerel $LN23+629
	DD	imagerel $unwind$simple_vm_findvar
$pdata$simple_vm_findvar2 DD imagerel $LN29
	DD	imagerel $LN29+1479
	DD	imagerel $unwind$simple_vm_findvar2
$pdata$simple_vm_newvar DD imagerel $LN7
	DD	imagerel $LN7+355
	DD	imagerel $unwind$simple_vm_newvar
$pdata$simple_vm_newvar2 DD imagerel $LN4
	DD	imagerel $LN4+237
	DD	imagerel $unwind$simple_vm_newvar2
$pdata$simple_vm_addnewnumbervar DD imagerel $LN3
	DD	imagerel $LN3+125
	DD	imagerel $unwind$simple_vm_addnewnumbervar
$pdata$simple_vm_addnewstringvar DD imagerel $LN3
	DD	imagerel $LN3+123
	DD	imagerel $unwind$simple_vm_addnewstringvar
$pdata$simple_vm_deletescope DD imagerel $LN4
	DD	imagerel $LN4+241
	DD	imagerel $unwind$simple_vm_deletescope
$pdata$simple_vm_addnewpointervar DD imagerel $LN3
	DD	imagerel $LN3+175
	DD	imagerel $unwind$simple_vm_addnewpointervar
$pdata$simple_vm_newtempvar DD imagerel $LN3
	DD	imagerel $LN3+163
	DD	imagerel $unwind$simple_vm_newtempvar
$pdata$simple_vm_addnewstringvar2 DD imagerel $LN3
	DD	imagerel $LN3+136
	DD	imagerel $unwind$simple_vm_addnewstringvar2
$pdata$simple_vm_newtempvar2 DD imagerel $LN3
	DD	imagerel $LN3+180
	DD	imagerel $unwind$simple_vm_newtempvar2
$pdata$simple_vm_addnewcpointervar DD imagerel $LN3
	DD	imagerel $LN3+222
	DD	imagerel $unwind$simple_vm_addnewcpointervar
$pdata$simple_vm_newglobalscope DD imagerel $LN3
	DD	imagerel $LN3+106
	DD	imagerel $unwind$simple_vm_newglobalscope
$pdata$simple_vm_endglobalscope DD imagerel $LN5
	DD	imagerel $LN5+161
	DD	imagerel $unwind$simple_vm_endglobalscope
$pdata$simple_vm_getglobalscope DD imagerel $LN5
	DD	imagerel $LN5+95
	DD	imagerel $unwind$simple_vm_getglobalscope
pdata	ENDS
xdata	SEGMENT
$unwind$simple_vm_newscope DD 010901H
	DD	04209H
$unwind$simple_vm_findvar DD 010e01H
	DD	0820eH
$unwind$simple_vm_findvar2 DD 011701H
	DD	0a217H
$unwind$simple_vm_newvar DD 010e01H
	DD	0620eH
$unwind$simple_vm_newvar2 DD 011301H
	DD	06213H
$unwind$simple_vm_addnewnumbervar DD 011401H
	DD	06214H
$unwind$simple_vm_addnewstringvar DD 011301H
	DD	06213H
$unwind$simple_vm_deletescope DD 010901H
	DD	04209H
$unwind$simple_vm_addnewpointervar DD 011801H
	DD	06218H
$unwind$simple_vm_newtempvar DD 011301H
	DD	06213H
$unwind$simple_vm_addnewstringvar2 DD 011801H
	DD	08218H
$unwind$simple_vm_newtempvar2 DD 011301H
	DD	06213H
$unwind$simple_vm_addnewcpointervar DD 011801H
	DD	06218H
$unwind$simple_vm_newglobalscope DD 010901H
	DD	04209H
$unwind$simple_vm_endglobalscope DD 010901H
	DD	04209H
$unwind$simple_vm_getglobalscope DD 010901H
	DD	06209H
xdata	ENDS
; Function compile flags: /Odtp
_TEXT	SEGMENT
list$ = 32
vm$ = 64
simple_vm_getglobalscope PROC
; File c:\users\thecarisma\documents\simple_github\simple\simple\sources\simple_vmvars.c
; Line 368
$LN5:
  00000	48 89 4c 24 08	 mov	 QWORD PTR [rsp+8], rcx
  00005	48 83 ec 38	 sub	 rsp, 56			; 00000038H
; Line 370
  00009	48 8b 44 24 40	 mov	 rax, QWORD PTR vm$[rsp]
  0000e	83 b8 18 1a 00
	00 00		 cmp	 DWORD PTR [rax+6680], 0
  00015	75 1d		 jne	 SHORT $LN2@simple_vm_
; Line 371
  00017	ba 01 00 00 00	 mov	 edx, 1
  0001c	48 8b 44 24 40	 mov	 rax, QWORD PTR vm$[rsp]
  00021	48 8b 88 38 18
	00 00		 mov	 rcx, QWORD PTR [rax+6200]
  00028	e8 00 00 00 00	 call	 simple_list_getlist
  0002d	48 89 44 24 20	 mov	 QWORD PTR list$[rsp], rax
; Line 373
  00032	eb 21		 jmp	 SHORT $LN1@simple_vm_
$LN2@simple_vm_:
; Line 374
  00034	48 8b 44 24 40	 mov	 rax, QWORD PTR vm$[rsp]
  00039	8b 90 18 1a 00
	00		 mov	 edx, DWORD PTR [rax+6680]
  0003f	48 8b 44 24 40	 mov	 rax, QWORD PTR vm$[rsp]
  00044	48 8b 88 08 1a
	00 00		 mov	 rcx, QWORD PTR [rax+6664]
  0004b	e8 00 00 00 00	 call	 simple_list_getlist
  00050	48 89 44 24 20	 mov	 QWORD PTR list$[rsp], rax
$LN1@simple_vm_:
; Line 376
  00055	48 8b 44 24 20	 mov	 rax, QWORD PTR list$[rsp]
; Line 377
  0005a	48 83 c4 38	 add	 rsp, 56			; 00000038H
  0005e	c3		 ret	 0
simple_vm_getglobalscope ENDP
_TEXT	ENDS
; Function compile flags: /Odtp
_TEXT	SEGMENT
vm$ = 8
simple_vm_setglobalscope PROC
; File c:\users\thecarisma\documents\simple_github\simple\simple\sources\simple_vmvars.c
; Line 363
  00000	48 89 4c 24 08	 mov	 QWORD PTR [rsp+8], rcx
; Line 364
  00005	48 8b 44 24 08	 mov	 rax, QWORD PTR vm$[rsp]
  0000a	48 8b 80 58 18
	00 00		 mov	 rax, QWORD PTR [rax+6232]
  00011	b9 08 00 00 00	 mov	 ecx, 8
  00016	48 6b c9 01	 imul	 rcx, 1
  0001a	48 8b 04 08	 mov	 rax, QWORD PTR [rax+rcx]
  0001e	48 8b 4c 24 08	 mov	 rcx, QWORD PTR vm$[rsp]
  00023	8b 40 08	 mov	 eax, DWORD PTR [rax+8]
  00026	89 81 18 1a 00
	00		 mov	 DWORD PTR [rcx+6680], eax
; Line 365
  0002c	c3		 ret	 0
simple_vm_setglobalscope ENDP
_TEXT	ENDS
; Function compile flags: /Odtp
_TEXT	SEGMENT
vm$ = 48
simple_vm_endglobalscope PROC
; File c:\users\thecarisma\documents\simple_github\simple\simple\sources\simple_vmvars.c
; Line 352
$LN5:
  00000	48 89 4c 24 08	 mov	 QWORD PTR [rsp+8], rcx
  00005	48 83 ec 28	 sub	 rsp, 40			; 00000028H
; Line 353
  00009	48 8b 44 24 30	 mov	 rax, QWORD PTR vm$[rsp]
  0000e	48 8b 80 10 1a
	00 00		 mov	 rax, QWORD PTR [rax+6672]
  00015	44 8b 40 10	 mov	 r8d, DWORD PTR [rax+16]
  00019	48 8b 44 24 30	 mov	 rax, QWORD PTR vm$[rsp]
  0001e	48 8b 90 10 1a
	00 00		 mov	 rdx, QWORD PTR [rax+6672]
  00025	48 8b 44 24 30	 mov	 rax, QWORD PTR vm$[rsp]
  0002a	48 8b 88 50 19
	00 00		 mov	 rcx, QWORD PTR [rax+6480]
  00031	e8 00 00 00 00	 call	 simple_list_deleteitem_gc
; Line 354
  00036	48 8b 44 24 30	 mov	 rax, QWORD PTR vm$[rsp]
  0003b	48 8b 80 10 1a
	00 00		 mov	 rax, QWORD PTR [rax+6672]
  00042	83 78 10 00	 cmp	 DWORD PTR [rax+16], 0
  00046	75 24		 jne	 SHORT $LN2@simple_vm_
; Line 355
  00048	ba 01 00 00 00	 mov	 edx, 1
  0004d	48 8b 44 24 30	 mov	 rax, QWORD PTR vm$[rsp]
  00052	48 8b 88 38 18
	00 00		 mov	 rcx, QWORD PTR [rax+6200]
  00059	e8 00 00 00 00	 call	 simple_list_getlist
  0005e	48 8b 4c 24 30	 mov	 rcx, QWORD PTR vm$[rsp]
  00063	48 89 81 40 18
	00 00		 mov	 QWORD PTR [rcx+6208], rax
; Line 357
  0006a	eb 30		 jmp	 SHORT $LN1@simple_vm_
$LN2@simple_vm_:
; Line 358
  0006c	48 8b 44 24 30	 mov	 rax, QWORD PTR vm$[rsp]
  00071	48 8b 80 10 1a
	00 00		 mov	 rax, QWORD PTR [rax+6672]
  00078	8b 50 10	 mov	 edx, DWORD PTR [rax+16]
  0007b	48 8b 44 24 30	 mov	 rax, QWORD PTR vm$[rsp]
  00080	48 8b 88 10 1a
	00 00		 mov	 rcx, QWORD PTR [rax+6672]
  00087	e8 00 00 00 00	 call	 simple_list_getitem
  0008c	48 8b 4c 24 30	 mov	 rcx, QWORD PTR vm$[rsp]
  00091	48 8b 40 08	 mov	 rax, QWORD PTR [rax+8]
  00095	48 89 81 40 18
	00 00		 mov	 QWORD PTR [rcx+6208], rax
$LN1@simple_vm_:
; Line 360
  0009c	48 83 c4 28	 add	 rsp, 40			; 00000028H
  000a0	c3		 ret	 0
simple_vm_endglobalscope ENDP
_TEXT	ENDS
; Function compile flags: /Odtp
_TEXT	SEGMENT
vm$ = 48
simple_vm_newglobalscope PROC
; File c:\users\thecarisma\documents\simple_github\simple\simple\sources\simple_vmvars.c
; Line 345
$LN3:
  00000	48 89 4c 24 08	 mov	 QWORD PTR [rsp+8], rcx
  00005	48 83 ec 28	 sub	 rsp, 40			; 00000028H
; Line 346
  00009	48 8b 44 24 30	 mov	 rax, QWORD PTR vm$[rsp]
  0000e	48 8b 90 08 1a
	00 00		 mov	 rdx, QWORD PTR [rax+6664]
  00015	48 8b 44 24 30	 mov	 rax, QWORD PTR vm$[rsp]
  0001a	48 8b 88 50 19
	00 00		 mov	 rcx, QWORD PTR [rax+6480]
  00021	e8 00 00 00 00	 call	 simple_list_newlist_gc
  00026	48 8b 4c 24 30	 mov	 rcx, QWORD PTR vm$[rsp]
  0002b	48 89 81 40 18
	00 00		 mov	 QWORD PTR [rcx+6208], rax
; Line 347
  00032	48 8b 44 24 30	 mov	 rax, QWORD PTR vm$[rsp]
  00037	4c 8b 80 40 18
	00 00		 mov	 r8, QWORD PTR [rax+6208]
  0003e	48 8b 44 24 30	 mov	 rax, QWORD PTR vm$[rsp]
  00043	48 8b 90 10 1a
	00 00		 mov	 rdx, QWORD PTR [rax+6672]
  0004a	48 8b 44 24 30	 mov	 rax, QWORD PTR vm$[rsp]
  0004f	48 8b 88 50 19
	00 00		 mov	 rcx, QWORD PTR [rax+6480]
  00056	e8 00 00 00 00	 call	 simple_list_addpointer_gc
; Line 348
  0005b	48 8b 4c 24 30	 mov	 rcx, QWORD PTR vm$[rsp]
  00060	e8 00 00 00 00	 call	 simple_vm_addglobalvariables
; Line 349
  00065	48 83 c4 28	 add	 rsp, 40			; 00000028H
  00069	c3		 ret	 0
simple_vm_newglobalscope ENDP
_TEXT	ENDS
; Function compile flags: /Odtp
_TEXT	SEGMENT
list$ = 32
list2$ = 40
vm$ = 64
cStr$ = 72
pointer$ = 80
cStr2$ = 88
simple_vm_addnewcpointervar PROC
; File c:\users\thecarisma\documents\simple_github\simple\simple\sources\simple_vmvars.c
; Line 314
$LN3:
  00000	4c 89 4c 24 20	 mov	 QWORD PTR [rsp+32], r9
  00005	4c 89 44 24 18	 mov	 QWORD PTR [rsp+24], r8
  0000a	48 89 54 24 10	 mov	 QWORD PTR [rsp+16], rdx
  0000f	48 89 4c 24 08	 mov	 QWORD PTR [rsp+8], rcx
  00014	48 83 ec 38	 sub	 rsp, 56			; 00000038H
; Line 316
  00018	48 8b 44 24 40	 mov	 rax, QWORD PTR vm$[rsp]
  0001d	4c 8b 80 40 18
	00 00		 mov	 r8, QWORD PTR [rax+6208]
  00024	48 8b 54 24 48	 mov	 rdx, QWORD PTR cStr$[rsp]
  00029	48 8b 4c 24 40	 mov	 rcx, QWORD PTR vm$[rsp]
  0002e	e8 00 00 00 00	 call	 simple_vm_newvar2
  00033	48 89 44 24 20	 mov	 QWORD PTR list$[rsp], rax
; Line 317
  00038	41 b9 03 00 00
	00		 mov	 r9d, 3
  0003e	41 b8 02 00 00
	00		 mov	 r8d, 2
  00044	48 8b 54 24 20	 mov	 rdx, QWORD PTR list$[rsp]
  00049	48 8b 44 24 40	 mov	 rax, QWORD PTR vm$[rsp]
  0004e	48 8b 88 50 19
	00 00		 mov	 rcx, QWORD PTR [rax+6480]
  00055	e8 00 00 00 00	 call	 simple_list_setint_gc
; Line 318
  0005a	41 b8 03 00 00
	00		 mov	 r8d, 3
  00060	48 8b 54 24 20	 mov	 rdx, QWORD PTR list$[rsp]
  00065	48 8b 44 24 40	 mov	 rax, QWORD PTR vm$[rsp]
  0006a	48 8b 88 50 19
	00 00		 mov	 rcx, QWORD PTR [rax+6480]
  00071	e8 00 00 00 00	 call	 simple_list_setlist_gc
; Line 319
  00076	ba 03 00 00 00	 mov	 edx, 3
  0007b	48 8b 4c 24 20	 mov	 rcx, QWORD PTR list$[rsp]
  00080	e8 00 00 00 00	 call	 simple_list_getlist
  00085	48 89 44 24 28	 mov	 QWORD PTR list2$[rsp], rax
; Line 321
  0008a	4c 8b 44 24 50	 mov	 r8, QWORD PTR pointer$[rsp]
  0008f	48 8b 54 24 28	 mov	 rdx, QWORD PTR list2$[rsp]
  00094	48 8b 44 24 40	 mov	 rax, QWORD PTR vm$[rsp]
  00099	48 8b 88 50 19
	00 00		 mov	 rcx, QWORD PTR [rax+6480]
  000a0	e8 00 00 00 00	 call	 simple_list_addpointer_gc
; Line 323
  000a5	4c 8b 44 24 58	 mov	 r8, QWORD PTR cStr2$[rsp]
  000aa	48 8b 54 24 28	 mov	 rdx, QWORD PTR list2$[rsp]
  000af	48 8b 44 24 40	 mov	 rax, QWORD PTR vm$[rsp]
  000b4	48 8b 88 50 19
	00 00		 mov	 rcx, QWORD PTR [rax+6480]
  000bb	e8 00 00 00 00	 call	 simple_list_addstring_gc
; Line 325
  000c0	45 33 c0	 xor	 r8d, r8d
  000c3	48 8b 54 24 28	 mov	 rdx, QWORD PTR list2$[rsp]
  000c8	48 8b 44 24 40	 mov	 rax, QWORD PTR vm$[rsp]
  000cd	48 8b 88 50 19
	00 00		 mov	 rcx, QWORD PTR [rax+6480]
  000d4	e8 00 00 00 00	 call	 simple_list_addint_gc
; Line 326
  000d9	48 83 c4 38	 add	 rsp, 56			; 00000038H
  000dd	c3		 ret	 0
simple_vm_addnewcpointervar ENDP
_TEXT	ENDS
; Function compile flags: /Odtp
_TEXT	SEGMENT
list$ = 32
list2$ = 40
vm$ = 64
cStr$ = 72
list3$ = 80
simple_vm_newtempvar2 PROC
; File c:\users\thecarisma\documents\simple_github\simple\simple\sources\simple_vmvars.c
; Line 302
$LN3:
  00000	4c 89 44 24 18	 mov	 QWORD PTR [rsp+24], r8
  00005	48 89 54 24 10	 mov	 QWORD PTR [rsp+16], rdx
  0000a	48 89 4c 24 08	 mov	 QWORD PTR [rsp+8], rcx
  0000f	48 83 ec 38	 sub	 rsp, 56			; 00000038H
; Line 304
  00013	48 8b 44 24 40	 mov	 rax, QWORD PTR vm$[rsp]
  00018	4c 8b 80 48 18
	00 00		 mov	 r8, QWORD PTR [rax+6216]
  0001f	48 8b 54 24 48	 mov	 rdx, QWORD PTR cStr$[rsp]
  00024	48 8b 4c 24 40	 mov	 rcx, QWORD PTR vm$[rsp]
  00029	e8 00 00 00 00	 call	 simple_vm_newvar2
  0002e	48 89 44 24 20	 mov	 QWORD PTR list$[rsp], rax
; Line 305
  00033	41 b9 03 00 00
	00		 mov	 r9d, 3
  00039	41 b8 02 00 00
	00		 mov	 r8d, 2
  0003f	48 8b 54 24 20	 mov	 rdx, QWORD PTR list$[rsp]
  00044	48 8b 44 24 40	 mov	 rax, QWORD PTR vm$[rsp]
  00049	48 8b 88 50 19
	00 00		 mov	 rcx, QWORD PTR [rax+6480]
  00050	e8 00 00 00 00	 call	 simple_list_setint_gc
; Line 306
  00055	41 b8 03 00 00
	00		 mov	 r8d, 3
  0005b	48 8b 54 24 20	 mov	 rdx, QWORD PTR list$[rsp]
  00060	48 8b 44 24 40	 mov	 rax, QWORD PTR vm$[rsp]
  00065	48 8b 88 50 19
	00 00		 mov	 rcx, QWORD PTR [rax+6480]
  0006c	e8 00 00 00 00	 call	 simple_list_setlist_gc
; Line 307
  00071	ba 03 00 00 00	 mov	 edx, 3
  00076	48 8b 4c 24 20	 mov	 rcx, QWORD PTR list$[rsp]
  0007b	e8 00 00 00 00	 call	 simple_list_getlist
  00080	48 89 44 24 28	 mov	 QWORD PTR list2$[rsp], rax
; Line 308
  00085	48 8b 54 24 28	 mov	 rdx, QWORD PTR list2$[rsp]
  0008a	48 8b 44 24 40	 mov	 rax, QWORD PTR vm$[rsp]
  0008f	48 8b 88 50 19
	00 00		 mov	 rcx, QWORD PTR [rax+6480]
  00096	e8 00 00 00 00	 call	 simple_list_deleteallitems_gc
; Line 309
  0009b	48 8b 54 24 50	 mov	 rdx, QWORD PTR list3$[rsp]
  000a0	48 8b 4c 24 28	 mov	 rcx, QWORD PTR list2$[rsp]
  000a5	e8 00 00 00 00	 call	 simple_list_copy
; Line 310
  000aa	48 8b 44 24 20	 mov	 rax, QWORD PTR list$[rsp]
; Line 311
  000af	48 83 c4 38	 add	 rsp, 56			; 00000038H
  000b3	c3		 ret	 0
simple_vm_newtempvar2 ENDP
_TEXT	ENDS
; Function compile flags: /Odtp
_TEXT	SEGMENT
list$ = 48
vm$ = 80
cStr$ = 88
cStr2$ = 96
str_size$ = 104
simple_vm_addnewstringvar2 PROC
; File c:\users\thecarisma\documents\simple_github\simple\simple\sources\simple_vmvars.c
; Line 274
$LN3:
  00000	44 89 4c 24 20	 mov	 DWORD PTR [rsp+32], r9d
  00005	4c 89 44 24 18	 mov	 QWORD PTR [rsp+24], r8
  0000a	48 89 54 24 10	 mov	 QWORD PTR [rsp+16], rdx
  0000f	48 89 4c 24 08	 mov	 QWORD PTR [rsp+8], rcx
  00014	48 83 ec 48	 sub	 rsp, 72			; 00000048H
; Line 276
  00018	48 8b 44 24 50	 mov	 rax, QWORD PTR vm$[rsp]
  0001d	4c 8b 80 40 18
	00 00		 mov	 r8, QWORD PTR [rax+6208]
  00024	48 8b 54 24 58	 mov	 rdx, QWORD PTR cStr$[rsp]
  00029	48 8b 4c 24 50	 mov	 rcx, QWORD PTR vm$[rsp]
  0002e	e8 00 00 00 00	 call	 simple_vm_newvar2
  00033	48 89 44 24 30	 mov	 QWORD PTR list$[rsp], rax
; Line 277
  00038	41 b9 01 00 00
	00		 mov	 r9d, 1
  0003e	41 b8 02 00 00
	00		 mov	 r8d, 2
  00044	48 8b 54 24 30	 mov	 rdx, QWORD PTR list$[rsp]
  00049	48 8b 44 24 50	 mov	 rax, QWORD PTR vm$[rsp]
  0004e	48 8b 88 50 19
	00 00		 mov	 rcx, QWORD PTR [rax+6480]
  00055	e8 00 00 00 00	 call	 simple_list_setint_gc
; Line 278
  0005a	8b 44 24 68	 mov	 eax, DWORD PTR str_size$[rsp]
  0005e	89 44 24 20	 mov	 DWORD PTR [rsp+32], eax
  00062	4c 8b 4c 24 60	 mov	 r9, QWORD PTR cStr2$[rsp]
  00067	41 b8 03 00 00
	00		 mov	 r8d, 3
  0006d	48 8b 54 24 30	 mov	 rdx, QWORD PTR list$[rsp]
  00072	48 8b 44 24 50	 mov	 rax, QWORD PTR vm$[rsp]
  00077	48 8b 88 50 19
	00 00		 mov	 rcx, QWORD PTR [rax+6480]
  0007e	e8 00 00 00 00	 call	 simple_list_setstring2_gc
; Line 279
  00083	48 83 c4 48	 add	 rsp, 72			; 00000048H
  00087	c3		 ret	 0
simple_vm_addnewstringvar2 ENDP
_TEXT	ENDS
; Function compile flags: /Odtp
_TEXT	SEGMENT
list$ = 32
vm$ = 64
cStr$ = 72
Temlist$ = 80
simple_vm_newtempvar PROC
; File c:\users\thecarisma\documents\simple_github\simple\simple\sources\simple_vmvars.c
; Line 293
$LN3:
  00000	4c 89 44 24 18	 mov	 QWORD PTR [rsp+24], r8
  00005	48 89 54 24 10	 mov	 QWORD PTR [rsp+16], rdx
  0000a	48 89 4c 24 08	 mov	 QWORD PTR [rsp+8], rcx
  0000f	48 83 ec 38	 sub	 rsp, 56			; 00000038H
; Line 295
  00013	4c 8b 44 24 50	 mov	 r8, QWORD PTR Temlist$[rsp]
  00018	48 8b 54 24 48	 mov	 rdx, QWORD PTR cStr$[rsp]
  0001d	48 8b 4c 24 40	 mov	 rcx, QWORD PTR vm$[rsp]
  00022	e8 00 00 00 00	 call	 simple_vm_newvar2
  00027	48 89 44 24 20	 mov	 QWORD PTR list$[rsp], rax
; Line 296
  0002c	48 8b 44 24 40	 mov	 rax, QWORD PTR vm$[rsp]
  00031	0f b6 80 30 18
	00 00		 movzx	 eax, BYTE PTR [rax+6192]
  00038	fe c0		 inc	 al
  0003a	48 8b 4c 24 40	 mov	 rcx, QWORD PTR vm$[rsp]
  0003f	88 81 30 18 00
	00		 mov	 BYTE PTR [rcx+6192], al
; Line 297
  00045	48 8b 44 24 40	 mov	 rax, QWORD PTR vm$[rsp]
  0004a	0f b6 80 30 18
	00 00		 movzx	 eax, BYTE PTR [rax+6192]
  00051	48 8b 4c 24 40	 mov	 rcx, QWORD PTR vm$[rsp]
  00056	48 83 c1 30	 add	 rcx, 48			; 00000030H
  0005a	4c 8b 44 24 20	 mov	 r8, QWORD PTR list$[rsp]
  0005f	8b d0		 mov	 edx, eax
  00061	e8 00 00 00 00	 call	 simple_itemarray_setpointer
; Line 298
  00066	48 8b 44 24 40	 mov	 rax, QWORD PTR vm$[rsp]
  0006b	0f b6 80 30 18
	00 00		 movzx	 eax, BYTE PTR [rax+6192]
  00072	48 6b c0 18	 imul	 rax, 24
  00076	48 8b 4c 24 40	 mov	 rcx, QWORD PTR vm$[rsp]
  0007b	8b 44 01 30	 mov	 eax, DWORD PTR [rcx+rax+48]
  0007f	83 e0 9f	 and	 eax, -97		; ffffff9fH
  00082	83 c8 20	 or	 eax, 32			; 00000020H
  00085	48 8b 4c 24 40	 mov	 rcx, QWORD PTR vm$[rsp]
  0008a	0f b6 89 30 18
	00 00		 movzx	 ecx, BYTE PTR [rcx+6192]
  00091	48 6b c9 18	 imul	 rcx, 24
  00095	48 8b 54 24 40	 mov	 rdx, QWORD PTR vm$[rsp]
  0009a	89 44 0a 30	 mov	 DWORD PTR [rdx+rcx+48], eax
; Line 299
  0009e	48 83 c4 38	 add	 rsp, 56			; 00000038H
  000a2	c3		 ret	 0
simple_vm_newtempvar ENDP
_TEXT	ENDS
; Function compile flags: /Odtp
_TEXT	SEGMENT
list$ = 32
vm$ = 64
cStr$ = 72
x$ = 80
y$ = 88
simple_vm_addnewpointervar PROC
; File c:\users\thecarisma\documents\simple_github\simple\simple\sources\simple_vmvars.c
; Line 282
$LN3:
  00000	44 89 4c 24 20	 mov	 DWORD PTR [rsp+32], r9d
  00005	4c 89 44 24 18	 mov	 QWORD PTR [rsp+24], r8
  0000a	48 89 54 24 10	 mov	 QWORD PTR [rsp+16], rdx
  0000f	48 89 4c 24 08	 mov	 QWORD PTR [rsp+8], rcx
  00014	48 83 ec 38	 sub	 rsp, 56			; 00000038H
; Line 284
  00018	48 8b 44 24 40	 mov	 rax, QWORD PTR vm$[rsp]
  0001d	4c 8b 80 40 18
	00 00		 mov	 r8, QWORD PTR [rax+6208]
  00024	48 8b 54 24 48	 mov	 rdx, QWORD PTR cStr$[rsp]
  00029	48 8b 4c 24 40	 mov	 rcx, QWORD PTR vm$[rsp]
  0002e	e8 00 00 00 00	 call	 simple_vm_newvar2
  00033	48 89 44 24 20	 mov	 QWORD PTR list$[rsp], rax
; Line 285
  00038	41 b9 04 00 00
	00		 mov	 r9d, 4
  0003e	41 b8 02 00 00
	00		 mov	 r8d, 2
  00044	48 8b 54 24 20	 mov	 rdx, QWORD PTR list$[rsp]
  00049	48 8b 44 24 40	 mov	 rax, QWORD PTR vm$[rsp]
  0004e	48 8b 88 50 19
	00 00		 mov	 rcx, QWORD PTR [rax+6480]
  00055	e8 00 00 00 00	 call	 simple_list_setint_gc
; Line 286
  0005a	4c 8b 4c 24 50	 mov	 r9, QWORD PTR x$[rsp]
  0005f	41 b8 03 00 00
	00		 mov	 r8d, 3
  00065	48 8b 54 24 20	 mov	 rdx, QWORD PTR list$[rsp]
  0006a	48 8b 44 24 40	 mov	 rax, QWORD PTR vm$[rsp]
  0006f	48 8b 88 50 19
	00 00		 mov	 rcx, QWORD PTR [rax+6480]
  00076	e8 00 00 00 00	 call	 simple_list_setpointer_gc
; Line 287
  0007b	44 8b 4c 24 58	 mov	 r9d, DWORD PTR y$[rsp]
  00080	41 b8 04 00 00
	00		 mov	 r8d, 4
  00086	48 8b 54 24 20	 mov	 rdx, QWORD PTR list$[rsp]
  0008b	48 8b 44 24 40	 mov	 rax, QWORD PTR vm$[rsp]
  00090	48 8b 88 50 19
	00 00		 mov	 rcx, QWORD PTR [rax+6480]
  00097	e8 00 00 00 00	 call	 simple_list_setint_gc
; Line 289
  0009c	8b 54 24 58	 mov	 edx, DWORD PTR y$[rsp]
  000a0	48 8b 4c 24 50	 mov	 rcx, QWORD PTR x$[rsp]
  000a5	e8 00 00 00 00	 call	 simple_vm_gc_checknewreference
; Line 290
  000aa	48 83 c4 38	 add	 rsp, 56			; 00000038H
  000ae	c3		 ret	 0
simple_vm_addnewpointervar ENDP
_TEXT	ENDS
; Function compile flags: /Odtp
_TEXT	SEGMENT
vm$ = 48
simple_vm_deletescope PROC
; File c:\users\thecarisma\documents\simple_github\simple\simple\sources\simple_vmvars.c
; Line 329
$LN4:
  00000	48 89 4c 24 08	 mov	 QWORD PTR [rsp+8], rcx
  00005	48 83 ec 28	 sub	 rsp, 40			; 00000028H
; Line 330
  00009	48 8b 44 24 30	 mov	 rax, QWORD PTR vm$[rsp]
  0000e	48 8b 80 38 18
	00 00		 mov	 rax, QWORD PTR [rax+6200]
  00015	83 78 10 02	 cmp	 DWORD PTR [rax+16], 2
  00019	7d 13		 jge	 SHORT $LN1@simple_vm_
; Line 331
  0001b	48 8d 0d 00 00
	00 00		 lea	 rcx, OFFSET FLAT:$SG82599
  00022	e8 00 00 00 00	 call	 printf
; Line 332
  00027	33 c9		 xor	 ecx, ecx
  00029	e8 00 00 00 00	 call	 exit
$LN1@simple_vm_:
; Line 335
  0002e	48 8b 4c 24 30	 mov	 rcx, QWORD PTR vm$[rsp]
  00033	e8 00 00 00 00	 call	 simple_vm_gc_checkreferences
; Line 336
  00038	48 8b 44 24 30	 mov	 rax, QWORD PTR vm$[rsp]
  0003d	48 8b 80 38 18
	00 00		 mov	 rax, QWORD PTR [rax+6200]
  00044	44 8b 40 10	 mov	 r8d, DWORD PTR [rax+16]
  00048	48 8b 44 24 30	 mov	 rax, QWORD PTR vm$[rsp]
  0004d	48 8b 90 38 18
	00 00		 mov	 rdx, QWORD PTR [rax+6200]
  00054	48 8b 44 24 30	 mov	 rax, QWORD PTR vm$[rsp]
  00059	48 8b 88 50 19
	00 00		 mov	 rcx, QWORD PTR [rax+6480]
  00060	e8 00 00 00 00	 call	 simple_list_deleteitem_gc
; Line 337
  00065	48 8b 44 24 30	 mov	 rax, QWORD PTR vm$[rsp]
  0006a	48 8b 80 38 18
	00 00		 mov	 rax, QWORD PTR [rax+6200]
  00071	8b 50 10	 mov	 edx, DWORD PTR [rax+16]
  00074	48 8b 44 24 30	 mov	 rax, QWORD PTR vm$[rsp]
  00079	48 8b 88 38 18
	00 00		 mov	 rcx, QWORD PTR [rax+6200]
  00080	e8 00 00 00 00	 call	 simple_list_getlist
  00085	48 8b 4c 24 30	 mov	 rcx, QWORD PTR vm$[rsp]
  0008a	48 89 81 40 18
	00 00		 mov	 QWORD PTR [rcx+6208], rax
; Line 339
  00091	48 8b 44 24 30	 mov	 rax, QWORD PTR vm$[rsp]
  00096	48 8b 80 f0 18
	00 00		 mov	 rax, QWORD PTR [rax+6384]
  0009d	44 8b 40 10	 mov	 r8d, DWORD PTR [rax+16]
  000a1	48 8b 44 24 30	 mov	 rax, QWORD PTR vm$[rsp]
  000a6	48 8b 90 f0 18
	00 00		 mov	 rdx, QWORD PTR [rax+6384]
  000ad	48 8b 44 24 30	 mov	 rax, QWORD PTR vm$[rsp]
  000b2	48 8b 88 50 19
	00 00		 mov	 rcx, QWORD PTR [rax+6480]
  000b9	e8 00 00 00 00	 call	 simple_list_deleteitem_gc
; Line 340
  000be	48 8b 44 24 30	 mov	 rax, QWORD PTR vm$[rsp]
  000c3	48 8b 80 f0 18
	00 00		 mov	 rax, QWORD PTR [rax+6384]
  000ca	8b 50 10	 mov	 edx, DWORD PTR [rax+16]
  000cd	48 8b 44 24 30	 mov	 rax, QWORD PTR vm$[rsp]
  000d2	48 8b 88 f0 18
	00 00		 mov	 rcx, QWORD PTR [rax+6384]
  000d9	e8 00 00 00 00	 call	 simple_list_getitem
  000de	48 8b 4c 24 30	 mov	 rcx, QWORD PTR vm$[rsp]
  000e3	8b 40 08	 mov	 eax, DWORD PTR [rax+8]
  000e6	89 81 f8 18 00
	00		 mov	 DWORD PTR [rcx+6392], eax
$LN3@simple_vm_:
; Line 341
  000ec	48 83 c4 28	 add	 rsp, 40			; 00000028H
  000f0	c3		 ret	 0
simple_vm_deletescope ENDP
_TEXT	ENDS
; Function compile flags: /Odtp
_TEXT	SEGMENT
list$ = 32
vm$ = 64
cStr$ = 72
cStr2$ = 80
simple_vm_addnewstringvar PROC
; File c:\users\thecarisma\documents\simple_github\simple\simple\sources\simple_vmvars.c
; Line 266
$LN3:
  00000	4c 89 44 24 18	 mov	 QWORD PTR [rsp+24], r8
  00005	48 89 54 24 10	 mov	 QWORD PTR [rsp+16], rdx
  0000a	48 89 4c 24 08	 mov	 QWORD PTR [rsp+8], rcx
  0000f	48 83 ec 38	 sub	 rsp, 56			; 00000038H
; Line 268
  00013	48 8b 44 24 40	 mov	 rax, QWORD PTR vm$[rsp]
  00018	4c 8b 80 40 18
	00 00		 mov	 r8, QWORD PTR [rax+6208]
  0001f	48 8b 54 24 48	 mov	 rdx, QWORD PTR cStr$[rsp]
  00024	48 8b 4c 24 40	 mov	 rcx, QWORD PTR vm$[rsp]
  00029	e8 00 00 00 00	 call	 simple_vm_newvar2
  0002e	48 89 44 24 20	 mov	 QWORD PTR list$[rsp], rax
; Line 269
  00033	41 b9 01 00 00
	00		 mov	 r9d, 1
  00039	41 b8 02 00 00
	00		 mov	 r8d, 2
  0003f	48 8b 54 24 20	 mov	 rdx, QWORD PTR list$[rsp]
  00044	48 8b 44 24 40	 mov	 rax, QWORD PTR vm$[rsp]
  00049	48 8b 88 50 19
	00 00		 mov	 rcx, QWORD PTR [rax+6480]
  00050	e8 00 00 00 00	 call	 simple_list_setint_gc
; Line 270
  00055	4c 8b 4c 24 50	 mov	 r9, QWORD PTR cStr2$[rsp]
  0005a	41 b8 03 00 00
	00		 mov	 r8d, 3
  00060	48 8b 54 24 20	 mov	 rdx, QWORD PTR list$[rsp]
  00065	48 8b 44 24 40	 mov	 rax, QWORD PTR vm$[rsp]
  0006a	48 8b 88 50 19
	00 00		 mov	 rcx, QWORD PTR [rax+6480]
  00071	e8 00 00 00 00	 call	 simple_list_setstsimple_gc
; Line 271
  00076	48 83 c4 38	 add	 rsp, 56			; 00000038H
  0007a	c3		 ret	 0
simple_vm_addnewstringvar ENDP
_TEXT	ENDS
; Function compile flags: /Odtp
_TEXT	SEGMENT
list$ = 32
vm$ = 64
cStr$ = 72
x$ = 80
simple_vm_addnewnumbervar PROC
; File c:\users\thecarisma\documents\simple_github\simple\simple\sources\simple_vmvars.c
; Line 258
$LN3:
  00000	f2 0f 11 54 24
	18		 movsdx	 QWORD PTR [rsp+24], xmm2
  00006	48 89 54 24 10	 mov	 QWORD PTR [rsp+16], rdx
  0000b	48 89 4c 24 08	 mov	 QWORD PTR [rsp+8], rcx
  00010	48 83 ec 38	 sub	 rsp, 56			; 00000038H
; Line 260
  00014	48 8b 44 24 40	 mov	 rax, QWORD PTR vm$[rsp]
  00019	4c 8b 80 40 18
	00 00		 mov	 r8, QWORD PTR [rax+6208]
  00020	48 8b 54 24 48	 mov	 rdx, QWORD PTR cStr$[rsp]
  00025	48 8b 4c 24 40	 mov	 rcx, QWORD PTR vm$[rsp]
  0002a	e8 00 00 00 00	 call	 simple_vm_newvar2
  0002f	48 89 44 24 20	 mov	 QWORD PTR list$[rsp], rax
; Line 261
  00034	41 b9 02 00 00
	00		 mov	 r9d, 2
  0003a	41 b8 02 00 00
	00		 mov	 r8d, 2
  00040	48 8b 54 24 20	 mov	 rdx, QWORD PTR list$[rsp]
  00045	48 8b 44 24 40	 mov	 rax, QWORD PTR vm$[rsp]
  0004a	48 8b 88 50 19
	00 00		 mov	 rcx, QWORD PTR [rax+6480]
  00051	e8 00 00 00 00	 call	 simple_list_setint_gc
; Line 262
  00056	f2 0f 10 5c 24
	50		 movsdx	 xmm3, QWORD PTR x$[rsp]
  0005c	41 b8 03 00 00
	00		 mov	 r8d, 3
  00062	48 8b 54 24 20	 mov	 rdx, QWORD PTR list$[rsp]
  00067	48 8b 44 24 40	 mov	 rax, QWORD PTR vm$[rsp]
  0006c	48 8b 88 50 19
	00 00		 mov	 rcx, QWORD PTR [rax+6480]
  00073	e8 00 00 00 00	 call	 simple_list_setdouble_gc
; Line 263
  00078	48 83 c4 38	 add	 rsp, 56			; 00000038H
  0007c	c3		 ret	 0
simple_vm_addnewnumbervar ENDP
_TEXT	ENDS
; Function compile flags: /Odtp
_TEXT	SEGMENT
list$ = 32
vm$ = 64
cStr$ = 72
pParent$ = 80
simple_vm_newvar2 PROC
; File c:\users\thecarisma\documents\simple_github\simple\simple\sources\simple_vmvars.c
; Line 238
$LN4:
  00000	4c 89 44 24 18	 mov	 QWORD PTR [rsp+24], r8
  00005	48 89 54 24 10	 mov	 QWORD PTR [rsp+16], rdx
  0000a	48 89 4c 24 08	 mov	 QWORD PTR [rsp+8], rcx
  0000f	48 83 ec 38	 sub	 rsp, 56			; 00000038H
; Line 241
  00013	48 8b 54 24 50	 mov	 rdx, QWORD PTR pParent$[rsp]
  00018	48 8b 44 24 40	 mov	 rax, QWORD PTR vm$[rsp]
  0001d	48 8b 88 50 19
	00 00		 mov	 rcx, QWORD PTR [rax+6480]
  00024	e8 00 00 00 00	 call	 simple_list_newlist_gc
  00029	48 89 44 24 20	 mov	 QWORD PTR list$[rsp], rax
; Line 242
  0002e	4c 8b 44 24 48	 mov	 r8, QWORD PTR cStr$[rsp]
  00033	48 8b 54 24 20	 mov	 rdx, QWORD PTR list$[rsp]
  00038	48 8b 44 24 40	 mov	 rax, QWORD PTR vm$[rsp]
  0003d	48 8b 88 50 19
	00 00		 mov	 rcx, QWORD PTR [rax+6480]
  00044	e8 00 00 00 00	 call	 simple_list_addstring_gc
; Line 243
  00049	45 33 c0	 xor	 r8d, r8d
  0004c	48 8b 54 24 20	 mov	 rdx, QWORD PTR list$[rsp]
  00051	48 8b 44 24 40	 mov	 rax, QWORD PTR vm$[rsp]
  00056	48 8b 88 50 19
	00 00		 mov	 rcx, QWORD PTR [rax+6480]
  0005d	e8 00 00 00 00	 call	 simple_list_addint_gc
; Line 244
  00062	4c 8d 05 00 00
	00 00		 lea	 r8, OFFSET FLAT:$SG82528
  00069	48 8b 54 24 20	 mov	 rdx, QWORD PTR list$[rsp]
  0006e	48 8b 44 24 40	 mov	 rax, QWORD PTR vm$[rsp]
  00073	48 8b 88 50 19
	00 00		 mov	 rcx, QWORD PTR [rax+6480]
  0007a	e8 00 00 00 00	 call	 simple_list_addstring_gc
; Line 246
  0007f	45 33 c0	 xor	 r8d, r8d
  00082	48 8b 54 24 20	 mov	 rdx, QWORD PTR list$[rsp]
  00087	48 8b 44 24 40	 mov	 rax, QWORD PTR vm$[rsp]
  0008c	48 8b 88 50 19
	00 00		 mov	 rcx, QWORD PTR [rax+6480]
  00093	e8 00 00 00 00	 call	 simple_list_addint_gc
; Line 248
  00098	45 33 c0	 xor	 r8d, r8d
  0009b	48 8b 54 24 20	 mov	 rdx, QWORD PTR list$[rsp]
  000a0	48 8b 44 24 40	 mov	 rax, QWORD PTR vm$[rsp]
  000a5	48 8b 88 50 19
	00 00		 mov	 rcx, QWORD PTR [rax+6480]
  000ac	e8 00 00 00 00	 call	 simple_list_addint_gc
; Line 250
  000b1	48 8b 44 24 50	 mov	 rax, QWORD PTR pParent$[rsp]
  000b6	48 83 78 28 00	 cmp	 QWORD PTR [rax+40], 0
  000bb	75 0e		 jne	 SHORT $LN1@simple_vm_
; Line 251
  000bd	e8 00 00 00 00	 call	 simple_hashtable_new
  000c2	48 8b 4c 24 50	 mov	 rcx, QWORD PTR pParent$[rsp]
  000c7	48 89 41 28	 mov	 QWORD PTR [rcx+40], rax
$LN1@simple_vm_:
; Line 253
  000cb	4c 8b 44 24 20	 mov	 r8, QWORD PTR list$[rsp]
  000d0	48 8b 54 24 48	 mov	 rdx, QWORD PTR cStr$[rsp]
  000d5	48 8b 44 24 50	 mov	 rax, QWORD PTR pParent$[rsp]
  000da	48 8b 48 28	 mov	 rcx, QWORD PTR [rax+40]
  000de	e8 00 00 00 00	 call	 simple_hashtable_newpointer
; Line 254
  000e3	48 8b 44 24 20	 mov	 rax, QWORD PTR list$[rsp]
; Line 255
  000e8	48 83 c4 38	 add	 rsp, 56			; 00000038H
  000ec	c3		 ret	 0
simple_vm_newvar2 ENDP
_TEXT	ENDS
; Function compile flags: /Odtp
_TEXT	SEGMENT
list$ = 32
vm$ = 64
cStr$ = 72
simple_vm_newvar PROC
; File c:\users\thecarisma\documents\simple_github\simple\simple\sources\simple_vmvars.c
; Line 217
$LN7:
  00000	48 89 54 24 10	 mov	 QWORD PTR [rsp+16], rdx
  00005	48 89 4c 24 08	 mov	 QWORD PTR [rsp+8], rcx
  0000a	48 83 ec 38	 sub	 rsp, 56			; 00000038H
; Line 220
  0000e	48 8b 44 24 40	 mov	 rax, QWORD PTR vm$[rsp]
  00013	4c 8b 80 40 18
	00 00		 mov	 r8, QWORD PTR [rax+6208]
  0001a	48 8b 54 24 48	 mov	 rdx, QWORD PTR cStr$[rsp]
  0001f	48 8b 4c 24 40	 mov	 rcx, QWORD PTR vm$[rsp]
  00024	e8 00 00 00 00	 call	 simple_vm_newvar2
  00029	48 89 44 24 20	 mov	 QWORD PTR list$[rsp], rax
; Line 221
  0002e	48 8b 44 24 40	 mov	 rax, QWORD PTR vm$[rsp]
  00033	0f b6 80 30 18
	00 00		 movzx	 eax, BYTE PTR [rax+6192]
  0003a	fe c0		 inc	 al
  0003c	48 8b 4c 24 40	 mov	 rcx, QWORD PTR vm$[rsp]
  00041	88 81 30 18 00
	00		 mov	 BYTE PTR [rcx+6192], al
; Line 222
  00047	48 8b 44 24 40	 mov	 rax, QWORD PTR vm$[rsp]
  0004c	0f b6 80 30 18
	00 00		 movzx	 eax, BYTE PTR [rax+6192]
  00053	48 8b 4c 24 40	 mov	 rcx, QWORD PTR vm$[rsp]
  00058	48 83 c1 30	 add	 rcx, 48			; 00000030H
  0005c	4c 8b 44 24 20	 mov	 r8, QWORD PTR list$[rsp]
  00061	8b d0		 mov	 edx, eax
  00063	e8 00 00 00 00	 call	 simple_itemarray_setpointer
; Line 223
  00068	48 8b 44 24 40	 mov	 rax, QWORD PTR vm$[rsp]
  0006d	0f b6 80 30 18
	00 00		 movzx	 eax, BYTE PTR [rax+6192]
  00074	48 6b c0 18	 imul	 rax, 24
  00078	48 8b 4c 24 40	 mov	 rcx, QWORD PTR vm$[rsp]
  0007d	8b 44 01 30	 mov	 eax, DWORD PTR [rcx+rax+48]
  00081	83 e0 9f	 and	 eax, -97		; ffffff9fH
  00084	83 c8 20	 or	 eax, 32			; 00000020H
  00087	48 8b 4c 24 40	 mov	 rcx, QWORD PTR vm$[rsp]
  0008c	0f b6 89 30 18
	00 00		 movzx	 ecx, BYTE PTR [rcx+6192]
  00093	48 6b c9 18	 imul	 rcx, 24
  00097	48 8b 54 24 40	 mov	 rdx, QWORD PTR vm$[rsp]
  0009c	89 44 0a 30	 mov	 DWORD PTR [rdx+rcx+48], eax
; Line 225
  000a0	48 8b 44 24 40	 mov	 rax, QWORD PTR vm$[rsp]
  000a5	48 8b 80 38 18
	00 00		 mov	 rax, QWORD PTR [rax+6200]
  000ac	83 78 10 01	 cmp	 DWORD PTR [rax+16], 1
  000b0	75 35		 jne	 SHORT $LN4@simple_vm_
  000b2	ba 01 00 00 00	 mov	 edx, 1
  000b7	48 8b 44 24 40	 mov	 rax, QWORD PTR vm$[rsp]
  000bc	48 8b 88 38 18
	00 00		 mov	 rcx, QWORD PTR [rax+6200]
  000c3	e8 00 00 00 00	 call	 simple_list_getlist
  000c8	48 8b 4c 24 40	 mov	 rcx, QWORD PTR vm$[rsp]
  000cd	48 39 81 40 18
	00 00		 cmp	 QWORD PTR [rcx+6208], rax
  000d4	75 11		 jne	 SHORT $LN4@simple_vm_
; Line 226
  000d6	48 8b 44 24 40	 mov	 rax, QWORD PTR vm$[rsp]
  000db	c7 80 e8 18 00
	00 03 00 00 00	 mov	 DWORD PTR [rax+6376], 3
  000e5	eb 4e		 jmp	 SHORT $LN3@simple_vm_
$LN4@simple_vm_:
; Line 228
  000e7	48 8b 44 24 40	 mov	 rax, QWORD PTR vm$[rsp]
  000ec	48 8b 80 38 18
	00 00		 mov	 rax, QWORD PTR [rax+6200]
  000f3	8b 50 10	 mov	 edx, DWORD PTR [rax+16]
  000f6	48 8b 44 24 40	 mov	 rax, QWORD PTR vm$[rsp]
  000fb	48 8b 88 38 18
	00 00		 mov	 rcx, QWORD PTR [rax+6200]
  00102	e8 00 00 00 00	 call	 simple_list_getlist
  00107	48 8b 4c 24 40	 mov	 rcx, QWORD PTR vm$[rsp]
  0010c	48 39 81 40 18
	00 00		 cmp	 QWORD PTR [rcx+6208], rax
  00113	75 11		 jne	 SHORT $LN2@simple_vm_
; Line 229
  00115	48 8b 44 24 40	 mov	 rax, QWORD PTR vm$[rsp]
  0011a	c7 80 e8 18 00
	00 01 00 00 00	 mov	 DWORD PTR [rax+6376], 1
; Line 230
  00124	eb 0f		 jmp	 SHORT $LN1@simple_vm_
$LN2@simple_vm_:
; Line 231
  00126	48 8b 44 24 40	 mov	 rax, QWORD PTR vm$[rsp]
  0012b	c7 80 e8 18 00
	00 00 00 00 00	 mov	 DWORD PTR [rax+6376], 0
$LN1@simple_vm_:
$LN3@simple_vm_:
; Line 234
  00135	48 8b 44 24 40	 mov	 rax, QWORD PTR vm$[rsp]
  0013a	44 8b 80 e8 18
	00 00		 mov	 r8d, DWORD PTR [rax+6376]
  00141	48 8b 44 24 40	 mov	 rax, QWORD PTR vm$[rsp]
  00146	48 8b 90 58 19
	00 00		 mov	 rdx, QWORD PTR [rax+6488]
  0014d	48 8b 44 24 40	 mov	 rax, QWORD PTR vm$[rsp]
  00152	48 8b 88 50 19
	00 00		 mov	 rcx, QWORD PTR [rax+6480]
  00159	e8 00 00 00 00	 call	 simple_list_addint_gc
; Line 235
  0015e	48 83 c4 38	 add	 rsp, 56			; 00000038H
  00162	c3		 ret	 0
simple_vm_newvar ENDP
_TEXT	ENDS
; Function compile flags: /Odtp
_TEXT	SEGMENT
nType$ = 32
lPrivateError$ = 36
nPC$ = 40
list$ = 48
pThis$ = 56
tv151 = 64
pItem$ = 72
vm$ = 96
x$ = 104
list2$ = 112
cStr$ = 120
simple_vm_findvar2 PROC
; File c:\users\thecarisma\documents\simple_github\simple\simple\sources\simple_vmvars.c
; Line 103
$LN29:
  00000	4c 89 4c 24 20	 mov	 QWORD PTR [rsp+32], r9
  00005	4c 89 44 24 18	 mov	 QWORD PTR [rsp+24], r8
  0000a	89 54 24 10	 mov	 DWORD PTR [rsp+16], edx
  0000e	48 89 4c 24 08	 mov	 QWORD PTR [rsp+8], rcx
  00013	48 83 ec 58	 sub	 rsp, 88			; 00000058H
; Line 111
  00017	83 7c 24 68 01	 cmp	 DWORD PTR x$[rsp], 1
  0001c	75 22		 jne	 SHORT $LN26@simple_vm_
  0001e	48 8b 4c 24 60	 mov	 rcx, QWORD PTR vm$[rsp]
  00023	e8 00 00 00 00	 call	 simple_vm_getglobalscope
  00028	48 8b 4c 24 60	 mov	 rcx, QWORD PTR vm$[rsp]
  0002d	48 39 81 40 18
	00 00		 cmp	 QWORD PTR [rcx+6208], rax
  00034	75 0a		 jne	 SHORT $LN26@simple_vm_
; Line 112
  00036	c7 44 24 68 03
	00 00 00	 mov	 DWORD PTR x$[rsp], 3
  0003e	eb 3d		 jmp	 SHORT $LN25@simple_vm_
$LN26@simple_vm_:
; Line 114
  00040	83 7c 24 68 01	 cmp	 DWORD PTR x$[rsp], 1
  00045	75 36		 jne	 SHORT $LN24@simple_vm_
  00047	48 8b 44 24 60	 mov	 rax, QWORD PTR vm$[rsp]
  0004c	48 8b 80 38 18
	00 00		 mov	 rax, QWORD PTR [rax+6200]
  00053	8b 50 10	 mov	 edx, DWORD PTR [rax+16]
  00056	48 8b 44 24 60	 mov	 rax, QWORD PTR vm$[rsp]
  0005b	48 8b 88 38 18
	00 00		 mov	 rcx, QWORD PTR [rax+6200]
  00062	e8 00 00 00 00	 call	 simple_list_getlist
  00067	48 8b 4c 24 60	 mov	 rcx, QWORD PTR vm$[rsp]
  0006c	48 39 81 40 18
	00 00		 cmp	 QWORD PTR [rcx+6208], rax
  00073	74 08		 je	 SHORT $LN24@simple_vm_
; Line 115
  00075	c7 44 24 68 04
	00 00 00	 mov	 DWORD PTR x$[rsp], 4
$LN24@simple_vm_:
$LN25@simple_vm_:
; Line 117
  0007d	48 8b 44 24 60	 mov	 rax, QWORD PTR vm$[rsp]
  00082	8b 4c 24 68	 mov	 ecx, DWORD PTR x$[rsp]
  00086	89 88 e8 18 00
	00		 mov	 DWORD PTR [rax+6376], ecx
; Line 118
  0008c	48 8b 44 24 60	 mov	 rax, QWORD PTR vm$[rsp]
  00091	0f b6 80 30 18
	00 00		 movzx	 eax, BYTE PTR [rax+6192]
  00098	fe c0		 inc	 al
  0009a	48 8b 4c 24 60	 mov	 rcx, QWORD PTR vm$[rsp]
  0009f	88 81 30 18 00
	00		 mov	 BYTE PTR [rcx+6192], al
; Line 119
  000a5	ba 02 00 00 00	 mov	 edx, 2
  000aa	48 8b 4c 24 70	 mov	 rcx, QWORD PTR list2$[rsp]
  000af	e8 00 00 00 00	 call	 simple_list_getitem
  000b4	83 78 08 04	 cmp	 DWORD PTR [rax+8], 4
  000b8	0f 85 2a 01 00
	00		 jne	 $LN23@simple_vm_
; Line 120
  000be	48 8b 44 24 60	 mov	 rax, QWORD PTR vm$[rsp]
  000c3	0f be 80 48 19
	00 00		 movsx	 eax, BYTE PTR [rax+6472]
  000ca	83 f8 01	 cmp	 eax, 1
  000cd	75 63		 jne	 SHORT $LN22@simple_vm_
; Line 121
  000cf	48 8b 44 24 60	 mov	 rax, QWORD PTR vm$[rsp]
  000d4	0f b6 80 30 18
	00 00		 movzx	 eax, BYTE PTR [rax+6192]
  000db	48 8b 4c 24 60	 mov	 rcx, QWORD PTR vm$[rsp]
  000e0	48 83 c1 30	 add	 rcx, 48			; 00000030H
  000e4	4c 8b 44 24 70	 mov	 r8, QWORD PTR list2$[rsp]
  000e9	8b d0		 mov	 edx, eax
  000eb	e8 00 00 00 00	 call	 simple_itemarray_setpointer
; Line 122
  000f0	48 8b 44 24 60	 mov	 rax, QWORD PTR vm$[rsp]
  000f5	0f b6 80 30 18
	00 00		 movzx	 eax, BYTE PTR [rax+6192]
  000fc	48 6b c0 18	 imul	 rax, 24
  00100	48 8b 4c 24 60	 mov	 rcx, QWORD PTR vm$[rsp]
  00105	8b 44 01 30	 mov	 eax, DWORD PTR [rcx+rax+48]
  00109	83 e0 9f	 and	 eax, -97		; ffffff9fH
  0010c	83 c8 20	 or	 eax, 32			; 00000020H
  0010f	48 8b 4c 24 60	 mov	 rcx, QWORD PTR vm$[rsp]
  00114	0f b6 89 30 18
	00 00		 movzx	 ecx, BYTE PTR [rcx+6192]
  0011b	48 6b c9 18	 imul	 rcx, 24
  0011f	48 8b 54 24 60	 mov	 rdx, QWORD PTR vm$[rsp]
  00124	89 44 0a 30	 mov	 DWORD PTR [rdx+rcx+48], eax
; Line 123
  00128	b8 01 00 00 00	 mov	 eax, 1
  0012d	e9 90 04 00 00	 jmp	 $LN27@simple_vm_
$LN22@simple_vm_:
; Line 125
  00132	ba 03 00 00 00	 mov	 edx, 3
  00137	48 8b 4c 24 70	 mov	 rcx, QWORD PTR list2$[rsp]
  0013c	e8 00 00 00 00	 call	 simple_list_getitem
  00141	48 8b 4c 24 60	 mov	 rcx, QWORD PTR vm$[rsp]
  00146	0f b6 89 30 18
	00 00		 movzx	 ecx, BYTE PTR [rcx+6192]
  0014d	48 8b 54 24 60	 mov	 rdx, QWORD PTR vm$[rsp]
  00152	48 83 c2 30	 add	 rdx, 48			; 00000030H
  00156	48 89 54 24 40	 mov	 QWORD PTR tv151[rsp], rdx
  0015b	4c 8b 40 08	 mov	 r8, QWORD PTR [rax+8]
  0015f	8b d1		 mov	 edx, ecx
  00161	48 8b 44 24 40	 mov	 rax, QWORD PTR tv151[rsp]
  00166	48 8b c8	 mov	 rcx, rax
  00169	e8 00 00 00 00	 call	 simple_itemarray_setpointer
; Line 126
  0016e	ba 04 00 00 00	 mov	 edx, 4
  00173	48 8b 4c 24 70	 mov	 rcx, QWORD PTR list2$[rsp]
  00178	e8 00 00 00 00	 call	 simple_list_getitem
  0017d	48 8b 4c 24 60	 mov	 rcx, QWORD PTR vm$[rsp]
  00182	0f b6 89 30 18
	00 00		 movzx	 ecx, BYTE PTR [rcx+6192]
  00189	48 6b c9 18	 imul	 rcx, 24
  0018d	8b 40 08	 mov	 eax, DWORD PTR [rax+8]
  00190	83 e0 03	 and	 eax, 3
  00193	c1 e0 05	 shl	 eax, 5
  00196	48 8b 54 24 60	 mov	 rdx, QWORD PTR vm$[rsp]
  0019b	8b 4c 0a 30	 mov	 ecx, DWORD PTR [rdx+rcx+48]
  0019f	83 e1 9f	 and	 ecx, -97		; ffffff9fH
  001a2	0b c8		 or	 ecx, eax
  001a4	8b c1		 mov	 eax, ecx
  001a6	48 8b 4c 24 60	 mov	 rcx, QWORD PTR vm$[rsp]
  001ab	0f b6 89 30 18
	00 00		 movzx	 ecx, BYTE PTR [rcx+6192]
  001b2	48 6b c9 18	 imul	 rcx, 24
  001b6	48 8b 54 24 60	 mov	 rdx, QWORD PTR vm$[rsp]
  001bb	89 44 0a 30	 mov	 DWORD PTR [rdx+rcx+48], eax
; Line 133
  001bf	48 8d 15 00 00
	00 00		 lea	 rdx, OFFSET FLAT:$SG82485
  001c6	48 8b 4c 24 78	 mov	 rcx, QWORD PTR cStr$[rsp]
  001cb	e8 00 00 00 00	 call	 strcmp
  001d0	85 c0		 test	 eax, eax
  001d2	74 0f		 je	 SHORT $LN21@simple_vm_
; Line 134
  001d4	48 8b 44 24 60	 mov	 rax, QWORD PTR vm$[rsp]
  001d9	c7 80 e8 18 00
	00 00 00 00 00	 mov	 DWORD PTR [rax+6376], 0
$LN21@simple_vm_:
; Line 136
  001e3	e9 d5 03 00 00	 jmp	 $LN20@simple_vm_
$LN23@simple_vm_:
; Line 138
  001e8	ba 05 00 00 00	 mov	 edx, 5
  001ed	48 8b 4c 24 70	 mov	 rcx, QWORD PTR list2$[rsp]
  001f2	e8 00 00 00 00	 call	 simple_list_getitem
  001f7	83 78 08 01	 cmp	 DWORD PTR [rax+8], 1
  001fb	0f 85 e6 00 00
	00		 jne	 $LN19@simple_vm_
; Line 140
  00201	48 8b 44 24 60	 mov	 rax, QWORD PTR vm$[rsp]
  00206	83 b8 e8 18 00
	00 04		 cmp	 DWORD PTR [rax+6376], 4
  0020d	75 15		 jne	 SHORT $LN17@simple_vm_
  0020f	48 8b 44 24 60	 mov	 rax, QWORD PTR vm$[rsp]
  00214	0f be 80 01 19
	00 00		 movsx	 eax, BYTE PTR [rax+6401]
  0021b	83 f8 01	 cmp	 eax, 1
  0021e	0f 84 c3 00 00
	00		 je	 $LN18@simple_vm_
$LN17@simple_vm_:
; Line 141
  00224	48 8b 4c 24 60	 mov	 rcx, QWORD PTR vm$[rsp]
  00229	e8 00 00 00 00	 call	 simple_vm_oop_callmethodinsideclass
  0022e	85 c0		 test	 eax, eax
  00230	0f 85 b1 00 00
	00		 jne	 $LN16@simple_vm_
; Line 142
  00236	c7 44 24 24 01
	00 00 00	 mov	 DWORD PTR lPrivateError$[rsp], 1
; Line 144
  0023e	48 8b 44 24 60	 mov	 rax, QWORD PTR vm$[rsp]
  00243	48 8b 80 d0 18
	00 00		 mov	 rax, QWORD PTR [rax+6352]
  0024a	48 8b 4c 24 60	 mov	 rcx, QWORD PTR vm$[rsp]
  0024f	0f be 89 b9 19
	00 00		 movsx	 ecx, BYTE PTR [rcx+6585]
  00256	39 48 10	 cmp	 DWORD PTR [rax+16], ecx
  00259	7e 68		 jle	 SHORT $LN15@simple_vm_
  0025b	48 8b 44 24 60	 mov	 rax, QWORD PTR vm$[rsp]
  00260	0f be 80 b9 19
	00 00		 movsx	 eax, BYTE PTR [rax+6585]
  00267	85 c0		 test	 eax, eax
  00269	74 58		 je	 SHORT $LN15@simple_vm_
; Line 145
  0026b	48 8b 44 24 60	 mov	 rax, QWORD PTR vm$[rsp]
  00270	48 8b 80 d0 18
	00 00		 mov	 rax, QWORD PTR [rax+6352]
  00277	48 8b 4c 24 60	 mov	 rcx, QWORD PTR vm$[rsp]
  0027c	0f be 89 b9 19
	00 00		 movsx	 ecx, BYTE PTR [rcx+6585]
  00283	8b 40 10	 mov	 eax, DWORD PTR [rax+16]
  00286	2b c1		 sub	 eax, ecx
  00288	8b d0		 mov	 edx, eax
  0028a	48 8b 44 24 60	 mov	 rax, QWORD PTR vm$[rsp]
  0028f	48 8b 88 d0 18
	00 00		 mov	 rcx, QWORD PTR [rax+6352]
  00296	e8 00 00 00 00	 call	 simple_list_getlist
  0029b	48 89 44 24 30	 mov	 QWORD PTR list$[rsp], rax
; Line 146
  002a0	48 8b 44 24 30	 mov	 rax, QWORD PTR list$[rsp]
  002a5	83 78 10 04	 cmp	 DWORD PTR [rax+16], 4
  002a9	75 18		 jne	 SHORT $LN14@simple_vm_
  002ab	48 8b 44 24 60	 mov	 rax, QWORD PTR vm$[rsp]
  002b0	0f be 80 c8 18
	00 00		 movsx	 eax, BYTE PTR [rax+6344]
  002b7	85 c0		 test	 eax, eax
  002b9	75 08		 jne	 SHORT $LN14@simple_vm_
; Line 148
  002bb	c7 44 24 24 00
	00 00 00	 mov	 DWORD PTR lPrivateError$[rsp], 0
$LN14@simple_vm_:
$LN15@simple_vm_:
; Line 151
  002c3	83 7c 24 24 00	 cmp	 DWORD PTR lPrivateError$[rsp], 0
  002c8	74 1d		 je	 SHORT $LN13@simple_vm_
; Line 152
  002ca	4c 8b 44 24 78	 mov	 r8, QWORD PTR cStr$[rsp]
  002cf	48 8d 15 00 00
	00 00		 lea	 rdx, OFFSET FLAT:$SG82494
  002d6	48 8b 4c 24 60	 mov	 rcx, QWORD PTR vm$[rsp]
  002db	e8 00 00 00 00	 call	 simple_vm_error2
; Line 153
  002e0	33 c0		 xor	 eax, eax
  002e2	e9 db 02 00 00	 jmp	 $LN27@simple_vm_
$LN13@simple_vm_:
$LN16@simple_vm_:
$LN18@simple_vm_:
$LN19@simple_vm_:
; Line 158
  002e7	48 8b 44 24 60	 mov	 rax, QWORD PTR vm$[rsp]
  002ec	0f b6 80 30 18
	00 00		 movzx	 eax, BYTE PTR [rax+6192]
  002f3	48 8b 4c 24 60	 mov	 rcx, QWORD PTR vm$[rsp]
  002f8	48 83 c1 30	 add	 rcx, 48			; 00000030H
  002fc	4c 8b 44 24 70	 mov	 r8, QWORD PTR list2$[rsp]
  00301	8b d0		 mov	 edx, eax
  00303	e8 00 00 00 00	 call	 simple_itemarray_setpointer
; Line 159
  00308	48 8b 44 24 60	 mov	 rax, QWORD PTR vm$[rsp]
  0030d	0f b6 80 30 18
	00 00		 movzx	 eax, BYTE PTR [rax+6192]
  00314	48 6b c0 18	 imul	 rax, 24
  00318	48 8b 4c 24 60	 mov	 rcx, QWORD PTR vm$[rsp]
  0031d	8b 44 01 30	 mov	 eax, DWORD PTR [rcx+rax+48]
  00321	83 e0 9f	 and	 eax, -97		; ffffff9fH
  00324	83 c8 20	 or	 eax, 32			; 00000020H
  00327	48 8b 4c 24 60	 mov	 rcx, QWORD PTR vm$[rsp]
  0032c	0f b6 89 30 18
	00 00		 movzx	 ecx, BYTE PTR [rcx+6192]
  00333	48 6b c9 18	 imul	 rcx, 24
  00337	48 8b 54 24 60	 mov	 rdx, QWORD PTR vm$[rsp]
  0033c	89 44 0a 30	 mov	 DWORD PTR [rdx+rcx+48], eax
; Line 161
  00340	48 8b 44 24 60	 mov	 rax, QWORD PTR vm$[rsp]
  00345	0f be 80 11 19
	00 00		 movsx	 eax, BYTE PTR [rax+6417]
  0034c	83 f8 01	 cmp	 eax, 1
  0034f	75 63		 jne	 SHORT $LN12@simple_vm_
; Line 163
  00351	48 8b 4c 24 60	 mov	 rcx, QWORD PTR vm$[rsp]
  00356	e8 00 00 00 00	 call	 simple_vm_getglobalscope
  0035b	ba 0c 00 00 00	 mov	 edx, 12
  00360	48 8b c8	 mov	 rcx, rax
  00363	e8 00 00 00 00	 call	 simple_list_getlist
  00368	48 89 44 24 38	 mov	 QWORD PTR pThis$[rsp], rax
; Line 164
  0036d	48 83 7c 24 38
	00		 cmp	 QWORD PTR pThis$[rsp], 0
  00373	74 2b		 je	 SHORT $LN11@simple_vm_
; Line 165
  00375	ba 03 00 00 00	 mov	 edx, 3
  0037a	48 8b 4c 24 38	 mov	 rcx, QWORD PTR pThis$[rsp]
  0037f	e8 00 00 00 00	 call	 simple_list_getitem
  00384	48 8b 4c 24 60	 mov	 rcx, QWORD PTR vm$[rsp]
  00389	48 8b 89 18 19
	00 00		 mov	 rcx, QWORD PTR [rcx+6424]
  00390	48 39 48 08	 cmp	 QWORD PTR [rax+8], rcx
  00394	75 0a		 jne	 SHORT $LN10@simple_vm_
; Line 166
  00396	b8 01 00 00 00	 mov	 eax, 1
  0039b	e9 22 02 00 00	 jmp	 $LN27@simple_vm_
$LN10@simple_vm_:
$LN11@simple_vm_:
; Line 169
  003a0	48 8b 54 24 70	 mov	 rdx, QWORD PTR list2$[rsp]
  003a5	48 8b 4c 24 60	 mov	 rcx, QWORD PTR vm$[rsp]
  003aa	e8 00 00 00 00	 call	 simple_vm_oop_setget
  003af	e9 09 02 00 00	 jmp	 $LN9@simple_vm_
$LN12@simple_vm_:
; Line 171
  003b4	83 7c 24 68 02	 cmp	 DWORD PTR x$[rsp], 2
  003b9	0f 85 fe 01 00
	00		 jne	 $LN8@simple_vm_
  003bf	48 8b 4c 24 60	 mov	 rcx, QWORD PTR vm$[rsp]
  003c4	e8 00 00 00 00	 call	 simple_vm_oop_callmethodinsideclass
  003c9	85 c0		 test	 eax, eax
  003cb	0f 85 ec 01 00
	00		 jne	 $LN8@simple_vm_
; Line 173
  003d1	48 8b 44 24 60	 mov	 rax, QWORD PTR vm$[rsp]
  003d6	48 8b 80 e0 18
	00 00		 mov	 rax, QWORD PTR [rax+6368]
  003dd	83 78 10 00	 cmp	 DWORD PTR [rax+16], 0
  003e1	0f 8e d6 01 00
	00		 jle	 $LN7@simple_vm_
; Line 174
  003e7	48 8b 44 24 60	 mov	 rax, QWORD PTR vm$[rsp]
  003ec	48 8b 80 e0 18
	00 00		 mov	 rax, QWORD PTR [rax+6368]
  003f3	8b 50 10	 mov	 edx, DWORD PTR [rax+16]
  003f6	48 8b 44 24 60	 mov	 rax, QWORD PTR vm$[rsp]
  003fb	48 8b 88 e0 18
	00 00		 mov	 rcx, QWORD PTR [rax+6368]
  00402	e8 00 00 00 00	 call	 simple_list_getlist
  00407	48 89 44 24 30	 mov	 QWORD PTR list$[rsp], rax
; Line 176
  0040c	48 8b 44 24 60	 mov	 rax, QWORD PTR vm$[rsp]
  00411	0f be 80 b9 19
	00 00		 movsx	 eax, BYTE PTR [rax+6585]
  00418	85 c0		 test	 eax, eax
  0041a	74 0a		 je	 SHORT $LN6@simple_vm_
; Line 181
  0041c	b8 01 00 00 00	 mov	 eax, 1
  00421	e9 9c 01 00 00	 jmp	 $LN27@simple_vm_
$LN6@simple_vm_:
; Line 184
  00426	ba 01 00 00 00	 mov	 edx, 1
  0042b	48 8b 4c 24 30	 mov	 rcx, QWORD PTR list$[rsp]
  00430	e8 00 00 00 00	 call	 simple_list_getitem
  00435	48 8b 40 08	 mov	 rax, QWORD PTR [rax+8]
  00439	48 89 44 24 30	 mov	 QWORD PTR list$[rsp], rax
; Line 185
  0043e	48 8b 4c 24 30	 mov	 rcx, QWORD PTR list$[rsp]
  00443	e8 00 00 00 00	 call	 simple_vm_oop_objtypefromobjlist
  00448	89 44 24 20	 mov	 DWORD PTR nType$[rsp], eax
; Line 187
  0044c	83 7c 24 20 01	 cmp	 DWORD PTR nType$[rsp], 1
  00451	75 22		 jne	 SHORT $LN5@simple_vm_
; Line 188
  00453	48 8b 4c 24 30	 mov	 rcx, QWORD PTR list$[rsp]
  00458	e8 00 00 00 00	 call	 simple_vm_oop_objvarfromobjlist
  0045d	48 89 44 24 30	 mov	 QWORD PTR list$[rsp], rax
; Line 189
  00462	48 8b 44 24 60	 mov	 rax, QWORD PTR vm$[rsp]
  00467	48 8b 4c 24 30	 mov	 rcx, QWORD PTR list$[rsp]
  0046c	48 89 88 18 19
	00 00		 mov	 QWORD PTR [rax+6424], rcx
  00473	eb 27		 jmp	 SHORT $LN4@simple_vm_
$LN5@simple_vm_:
; Line 191
  00475	83 7c 24 20 02	 cmp	 DWORD PTR nType$[rsp], 2
  0047a	75 20		 jne	 SHORT $LN3@simple_vm_
; Line 192
  0047c	48 8b 4c 24 30	 mov	 rcx, QWORD PTR list$[rsp]
  00481	e8 00 00 00 00	 call	 simple_vm_oop_objitemfromobjlist
  00486	48 89 44 24 48	 mov	 QWORD PTR pItem$[rsp], rax
; Line 193
  0048b	48 8b 44 24 60	 mov	 rax, QWORD PTR vm$[rsp]
  00490	48 8b 4c 24 48	 mov	 rcx, QWORD PTR pItem$[rsp]
  00495	48 89 88 18 19
	00 00		 mov	 QWORD PTR [rax+6424], rcx
$LN3@simple_vm_:
$LN4@simple_vm_:
; Line 195
  0049c	48 8b 44 24 60	 mov	 rax, QWORD PTR vm$[rsp]
  004a1	0f b6 4c 24 20	 movzx	 ecx, BYTE PTR nType$[rsp]
  004a6	88 88 20 19 00
	00		 mov	 BYTE PTR [rax+6432], cl
; Line 197
  004ac	48 8b 44 24 60	 mov	 rax, QWORD PTR vm$[rsp]
  004b1	48 8b 80 58 18
	00 00		 mov	 rax, QWORD PTR [rax+6232]
  004b8	0f be 80 c0 00
	00 00		 movsx	 eax, BYTE PTR [rax+192]
  004bf	83 f8 04	 cmp	 eax, 4
  004c2	0f 8c e6 00 00
	00		 jl	 $LN2@simple_vm_
; Line 198
  004c8	48 8b 44 24 60	 mov	 rax, QWORD PTR vm$[rsp]
  004cd	48 8b 80 58 18
	00 00		 mov	 rax, QWORD PTR [rax+6232]
  004d4	b9 08 00 00 00	 mov	 ecx, 8
  004d9	48 6b c9 03	 imul	 rcx, 3
  004dd	48 8b 04 08	 mov	 rax, QWORD PTR [rax+rcx]
  004e1	83 78 08 00	 cmp	 DWORD PTR [rax+8], 0
  004e5	0f 84 c3 00 00
	00		 je	 $LN1@simple_vm_
; Line 199
  004eb	48 8b 44 24 60	 mov	 rax, QWORD PTR vm$[rsp]
  004f0	8b 00		 mov	 eax, DWORD PTR [rax]
  004f2	89 44 24 28	 mov	 DWORD PTR nPC$[rsp], eax
; Line 200
  004f6	48 8b 44 24 60	 mov	 rax, QWORD PTR vm$[rsp]
  004fb	48 8b 80 58 18
	00 00		 mov	 rax, QWORD PTR [rax+6232]
  00502	b9 08 00 00 00	 mov	 ecx, 8
  00507	48 6b c9 03	 imul	 rcx, 3
  0050b	48 8b 04 08	 mov	 rax, QWORD PTR [rax+rcx]
  0050f	48 8b 4c 24 60	 mov	 rcx, QWORD PTR vm$[rsp]
  00514	8b 40 08	 mov	 eax, DWORD PTR [rax+8]
  00517	89 01		 mov	 DWORD PTR [rcx], eax
; Line 201
  00519	48 8b 44 24 60	 mov	 rax, QWORD PTR vm$[rsp]
  0051e	48 63 00	 movsxd	 rax, DWORD PTR [rax]
  00521	48 69 c0 d0 00
	00 00		 imul	 rax, 208		; 000000d0H
  00528	48 8b 4c 24 60	 mov	 rcx, QWORD PTR vm$[rsp]
  0052d	48 8b 89 50 18
	00 00		 mov	 rcx, QWORD PTR [rcx+6224]
  00534	48 8d 84 01 30
	ff ff ff	 lea	 rax, QWORD PTR [rcx+rax-208]
  0053c	48 8b 4c 24 60	 mov	 rcx, QWORD PTR vm$[rsp]
  00541	48 89 81 58 18
	00 00		 mov	 QWORD PTR [rcx+6232], rax
; Line 202
  00548	48 8b 44 24 60	 mov	 rax, QWORD PTR vm$[rsp]
  0054d	48 8b 80 58 18
	00 00		 mov	 rax, QWORD PTR [rax+6232]
  00554	b9 08 00 00 00	 mov	 ecx, 8
  00559	48 6b c9 00	 imul	 rcx, 0
  0055d	48 8b 04 08	 mov	 rax, QWORD PTR [rax+rcx]
  00561	c7 40 08 50 00
	00 00		 mov	 DWORD PTR [rax+8], 80	; 00000050H
; Line 203
  00568	48 8b 44 24 60	 mov	 rax, QWORD PTR vm$[rsp]
  0056d	8b 4c 24 28	 mov	 ecx, DWORD PTR nPC$[rsp]
  00571	89 08		 mov	 DWORD PTR [rax], ecx
; Line 204
  00573	48 8b 44 24 60	 mov	 rax, QWORD PTR vm$[rsp]
  00578	48 63 00	 movsxd	 rax, DWORD PTR [rax]
  0057b	48 69 c0 d0 00
	00 00		 imul	 rax, 208		; 000000d0H
  00582	48 8b 4c 24 60	 mov	 rcx, QWORD PTR vm$[rsp]
  00587	48 8b 89 50 18
	00 00		 mov	 rcx, QWORD PTR [rcx+6224]
  0058e	48 8d 84 01 60
	fe ff ff	 lea	 rax, QWORD PTR [rcx+rax-416]
  00596	48 8b 4c 24 60	 mov	 rcx, QWORD PTR vm$[rsp]
  0059b	48 89 81 58 18
	00 00		 mov	 QWORD PTR [rcx+6232], rax
; Line 206
  005a2	48 8b 44 24 60	 mov	 rax, QWORD PTR vm$[rsp]
  005a7	c6 80 4a 19 00
	00 01		 mov	 BYTE PTR [rax+6474], 1
$LN1@simple_vm_:
$LN2@simple_vm_:
; Line 209
  005ae	48 8b 54 24 70	 mov	 rdx, QWORD PTR list2$[rsp]
  005b3	48 8b 4c 24 60	 mov	 rcx, QWORD PTR vm$[rsp]
  005b8	e8 00 00 00 00	 call	 simple_vm_oop_setget
$LN7@simple_vm_:
$LN8@simple_vm_:
$LN9@simple_vm_:
$LN20@simple_vm_:
; Line 213
  005bd	b8 01 00 00 00	 mov	 eax, 1
$LN27@simple_vm_:
; Line 214
  005c2	48 83 c4 58	 add	 rsp, 88			; 00000058H
  005c6	c3		 ret	 0
simple_vm_findvar2 ENDP
_TEXT	ENDS
; Function compile flags: /Odtp
_TEXT	SEGMENT
x$ = 32
nPos$ = 36
nMax1$ = 40
list$ = 48
list2$ = 56
vm$ = 80
cStr$ = 88
simple_vm_findvar PROC
; File c:\users\thecarisma\documents\simple_github\simple\simple\sources\simple_vmvars.c
; Line 34
$LN23:
  00000	48 89 54 24 10	 mov	 QWORD PTR [rsp+16], rdx
  00005	48 89 4c 24 08	 mov	 QWORD PTR [rsp+8], rcx
  0000a	48 83 ec 48	 sub	 rsp, 72			; 00000048H
; Line 38
  0000e	48 8b 44 24 50	 mov	 rax, QWORD PTR vm$[rsp]
  00013	48 8b 80 38 18
	00 00		 mov	 rax, QWORD PTR [rax+6200]
  0001a	8b 40 10	 mov	 eax, DWORD PTR [rax+16]
  0001d	89 44 24 28	 mov	 DWORD PTR nMax1$[rsp], eax
; Line 40
  00021	48 8b 44 24 50	 mov	 rax, QWORD PTR vm$[rsp]
  00026	c7 80 e8 18 00
	00 00 00 00 00	 mov	 DWORD PTR [rax+6376], 0
; Line 41
  00030	83 7c 24 28 00	 cmp	 DWORD PTR nMax1$[rsp], 0
  00035	0f 8e 33 02 00
	00		 jle	 $LN20@simple_vm_
; Line 43
  0003b	c7 44 24 20 01
	00 00 00	 mov	 DWORD PTR x$[rsp], 1
  00043	eb 0a		 jmp	 SHORT $LN19@simple_vm_
$LN18@simple_vm_:
  00045	8b 44 24 20	 mov	 eax, DWORD PTR x$[rsp]
  00049	ff c0		 inc	 eax
  0004b	89 44 24 20	 mov	 DWORD PTR x$[rsp], eax
$LN19@simple_vm_:
  0004f	83 7c 24 20 03	 cmp	 DWORD PTR x$[rsp], 3
  00054	0f 8f 14 02 00
	00		 jg	 $LN17@simple_vm_
; Line 45
  0005a	83 7c 24 20 01	 cmp	 DWORD PTR x$[rsp], 1
  0005f	75 16		 jne	 SHORT $LN16@simple_vm_
; Line 46
  00061	48 8b 44 24 50	 mov	 rax, QWORD PTR vm$[rsp]
  00066	48 8b 80 40 18
	00 00		 mov	 rax, QWORD PTR [rax+6208]
  0006d	48 89 44 24 30	 mov	 QWORD PTR list$[rsp], rax
  00072	e9 2a 01 00 00	 jmp	 $LN15@simple_vm_
$LN16@simple_vm_:
; Line 48
  00077	83 7c 24 20 02	 cmp	 DWORD PTR x$[rsp], 2
  0007c	0f 85 fa 00 00
	00		 jne	 $LN14@simple_vm_
; Line 50
  00082	48 8b 44 24 50	 mov	 rax, QWORD PTR vm$[rsp]
  00087	0f be 80 11 19
	00 00		 movsx	 eax, BYTE PTR [rax+6417]
  0008e	83 f8 01	 cmp	 eax, 1
  00091	75 02		 jne	 SHORT $LN13@simple_vm_
; Line 51
  00093	eb b0		 jmp	 SHORT $LN18@simple_vm_
$LN13@simple_vm_:
; Line 53
  00095	48 8b 44 24 50	 mov	 rax, QWORD PTR vm$[rsp]
  0009a	48 8b 80 d0 18
	00 00		 mov	 rax, QWORD PTR [rax+6352]
  000a1	83 78 10 00	 cmp	 DWORD PTR [rax+16], 0
  000a5	75 02		 jne	 SHORT $LN12@simple_vm_
; Line 54
  000a7	eb 9c		 jmp	 SHORT $LN18@simple_vm_
$LN12@simple_vm_:
; Line 57
  000a9	48 8b 44 24 50	 mov	 rax, QWORD PTR vm$[rsp]
  000ae	48 8b 80 d0 18
	00 00		 mov	 rax, QWORD PTR [rax+6352]
  000b5	8b 50 10	 mov	 edx, DWORD PTR [rax+16]
  000b8	48 8b 44 24 50	 mov	 rax, QWORD PTR vm$[rsp]
  000bd	48 8b 88 d0 18
	00 00		 mov	 rcx, QWORD PTR [rax+6352]
  000c4	e8 00 00 00 00	 call	 simple_list_getlist
  000c9	48 89 44 24 30	 mov	 QWORD PTR list$[rsp], rax
; Line 58
  000ce	ba 01 00 00 00	 mov	 edx, 1
  000d3	48 8b 4c 24 30	 mov	 rcx, QWORD PTR list$[rsp]
  000d8	e8 00 00 00 00	 call	 simple_list_getitem
  000dd	48 8b 40 08	 mov	 rax, QWORD PTR [rax+8]
  000e1	48 89 44 24 30	 mov	 QWORD PTR list$[rsp], rax
; Line 59
  000e6	48 83 7c 24 30
	00		 cmp	 QWORD PTR list$[rsp], 0
  000ec	75 05		 jne	 SHORT $LN11@simple_vm_
; Line 60
  000ee	e9 52 ff ff ff	 jmp	 $LN18@simple_vm_
$LN11@simple_vm_:
; Line 63
  000f3	48 8b 44 24 50	 mov	 rax, QWORD PTR vm$[rsp]
  000f8	48 8b 80 d0 18
	00 00		 mov	 rax, QWORD PTR [rax+6352]
  000ff	48 8b 4c 24 50	 mov	 rcx, QWORD PTR vm$[rsp]
  00104	0f be 89 b9 19
	00 00		 movsx	 ecx, BYTE PTR [rcx+6585]
  0010b	39 48 10	 cmp	 DWORD PTR [rax+16], ecx
  0010e	7e 6a		 jle	 SHORT $LN10@simple_vm_
  00110	48 8b 44 24 50	 mov	 rax, QWORD PTR vm$[rsp]
  00115	0f be 80 b9 19
	00 00		 movsx	 eax, BYTE PTR [rax+6585]
  0011c	85 c0		 test	 eax, eax
  0011e	74 5a		 je	 SHORT $LN10@simple_vm_
; Line 64
  00120	48 8b 44 24 50	 mov	 rax, QWORD PTR vm$[rsp]
  00125	48 8b 80 d0 18
	00 00		 mov	 rax, QWORD PTR [rax+6352]
  0012c	48 8b 4c 24 50	 mov	 rcx, QWORD PTR vm$[rsp]
  00131	0f be 89 b9 19
	00 00		 movsx	 ecx, BYTE PTR [rcx+6585]
  00138	8b 40 10	 mov	 eax, DWORD PTR [rax+16]
  0013b	2b c1		 sub	 eax, ecx
  0013d	8b d0		 mov	 edx, eax
  0013f	48 8b 44 24 50	 mov	 rax, QWORD PTR vm$[rsp]
  00144	48 8b 88 d0 18
	00 00		 mov	 rcx, QWORD PTR [rax+6352]
  0014b	e8 00 00 00 00	 call	 simple_list_getlist
  00150	48 89 44 24 30	 mov	 QWORD PTR list$[rsp], rax
; Line 65
  00155	ba 01 00 00 00	 mov	 edx, 1
  0015a	48 8b 4c 24 30	 mov	 rcx, QWORD PTR list$[rsp]
  0015f	e8 00 00 00 00	 call	 simple_list_getitem
  00164	48 8b 40 08	 mov	 rax, QWORD PTR [rax+8]
  00168	48 89 44 24 30	 mov	 QWORD PTR list$[rsp], rax
; Line 66
  0016d	48 83 7c 24 30
	00		 cmp	 QWORD PTR list$[rsp], 0
  00173	75 05		 jne	 SHORT $LN9@simple_vm_
; Line 67
  00175	e9 cb fe ff ff	 jmp	 $LN18@simple_vm_
$LN9@simple_vm_:
$LN10@simple_vm_:
; Line 70
  0017a	eb 25		 jmp	 SHORT $LN8@simple_vm_
$LN14@simple_vm_:
; Line 72
  0017c	48 8b 44 24 50	 mov	 rax, QWORD PTR vm$[rsp]
  00181	0f be 80 11 19
	00 00		 movsx	 eax, BYTE PTR [rax+6417]
  00188	83 f8 01	 cmp	 eax, 1
  0018b	75 05		 jne	 SHORT $LN7@simple_vm_
; Line 73
  0018d	e9 b3 fe ff ff	 jmp	 $LN18@simple_vm_
$LN7@simple_vm_:
; Line 75
  00192	48 8b 4c 24 50	 mov	 rcx, QWORD PTR vm$[rsp]
  00197	e8 00 00 00 00	 call	 simple_vm_getglobalscope
  0019c	48 89 44 24 30	 mov	 QWORD PTR list$[rsp], rax
$LN8@simple_vm_:
$LN15@simple_vm_:
; Line 77
  001a1	48 8b 44 24 30	 mov	 rax, QWORD PTR list$[rsp]
  001a6	83 78 10 0a	 cmp	 DWORD PTR [rax+16], 10
  001aa	7d 61		 jge	 SHORT $LN6@simple_vm_
; Line 79
  001ac	41 b8 01 00 00
	00		 mov	 r8d, 1
  001b2	48 8b 54 24 58	 mov	 rdx, QWORD PTR cStr$[rsp]
  001b7	48 8b 4c 24 30	 mov	 rcx, QWORD PTR list$[rsp]
  001bc	e8 00 00 00 00	 call	 simple_list_findstring
  001c1	89 44 24 24	 mov	 DWORD PTR nPos$[rsp], eax
; Line 80
  001c5	83 7c 24 24 00	 cmp	 DWORD PTR nPos$[rsp], 0
  001ca	74 3f		 je	 SHORT $LN5@simple_vm_
; Line 81
  001cc	8b 54 24 24	 mov	 edx, DWORD PTR nPos$[rsp]
  001d0	48 8b 4c 24 30	 mov	 rcx, QWORD PTR list$[rsp]
  001d5	e8 00 00 00 00	 call	 simple_list_islist
  001da	85 c0		 test	 eax, eax
  001dc	74 2d		 je	 SHORT $LN4@simple_vm_
; Line 82
  001de	8b 54 24 24	 mov	 edx, DWORD PTR nPos$[rsp]
  001e2	48 8b 4c 24 30	 mov	 rcx, QWORD PTR list$[rsp]
  001e7	e8 00 00 00 00	 call	 simple_list_getlist
  001ec	48 89 44 24 38	 mov	 QWORD PTR list2$[rsp], rax
; Line 83
  001f1	4c 8b 4c 24 58	 mov	 r9, QWORD PTR cStr$[rsp]
  001f6	4c 8b 44 24 38	 mov	 r8, QWORD PTR list2$[rsp]
  001fb	8b 54 24 20	 mov	 edx, DWORD PTR x$[rsp]
  001ff	48 8b 4c 24 50	 mov	 rcx, QWORD PTR vm$[rsp]
  00204	e8 00 00 00 00	 call	 simple_vm_findvar2
  00209	eb 65		 jmp	 SHORT $LN21@simple_vm_
$LN4@simple_vm_:
$LN5@simple_vm_:
; Line 87
  0020b	eb 5c		 jmp	 SHORT $LN3@simple_vm_
$LN6@simple_vm_:
; Line 89
  0020d	48 8b 44 24 30	 mov	 rax, QWORD PTR list$[rsp]
  00212	48 83 78 28 00	 cmp	 QWORD PTR [rax+40], 0
  00217	75 16		 jne	 SHORT $LN2@simple_vm_
; Line 90
  00219	48 8b 54 24 30	 mov	 rdx, QWORD PTR list$[rsp]
  0021e	48 8b 44 24 50	 mov	 rax, QWORD PTR vm$[rsp]
  00223	48 8b 88 50 19
	00 00		 mov	 rcx, QWORD PTR [rax+6480]
  0022a	e8 00 00 00 00	 call	 simple_list_genhashtable2_gc
$LN2@simple_vm_:
; Line 92
  0022f	48 8b 54 24 58	 mov	 rdx, QWORD PTR cStr$[rsp]
  00234	48 8b 44 24 30	 mov	 rax, QWORD PTR list$[rsp]
  00239	48 8b 48 28	 mov	 rcx, QWORD PTR [rax+40]
  0023d	e8 00 00 00 00	 call	 simple_hashtable_findpointer
  00242	48 89 44 24 38	 mov	 QWORD PTR list2$[rsp], rax
; Line 93
  00247	48 83 7c 24 38
	00		 cmp	 QWORD PTR list2$[rsp], 0
  0024d	74 1a		 je	 SHORT $LN1@simple_vm_
; Line 94
  0024f	4c 8b 4c 24 58	 mov	 r9, QWORD PTR cStr$[rsp]
  00254	4c 8b 44 24 38	 mov	 r8, QWORD PTR list2$[rsp]
  00259	8b 54 24 20	 mov	 edx, DWORD PTR x$[rsp]
  0025d	48 8b 4c 24 50	 mov	 rcx, QWORD PTR vm$[rsp]
  00262	e8 00 00 00 00	 call	 simple_vm_findvar2
  00267	eb 07		 jmp	 SHORT $LN21@simple_vm_
$LN1@simple_vm_:
$LN3@simple_vm_:
; Line 97
  00269	e9 d7 fd ff ff	 jmp	 $LN18@simple_vm_
$LN17@simple_vm_:
$LN20@simple_vm_:
; Line 99
  0026e	33 c0		 xor	 eax, eax
$LN21@simple_vm_:
; Line 100
  00270	48 83 c4 48	 add	 rsp, 72			; 00000048H
  00274	c3		 ret	 0
simple_vm_findvar ENDP
_TEXT	ENDS
; Function compile flags: /Odtp
_TEXT	SEGMENT
vm$ = 48
simple_vm_newscope PROC
; File c:\users\thecarisma\documents\simple_github\simple\simple\sources\simple_vmvars.c
; Line 25
$LN3:
  00000	48 89 4c 24 08	 mov	 QWORD PTR [rsp+8], rcx
  00005	48 83 ec 28	 sub	 rsp, 40			; 00000028H
; Line 26
  00009	48 8b 44 24 30	 mov	 rax, QWORD PTR vm$[rsp]
  0000e	48 8b 90 38 18
	00 00		 mov	 rdx, QWORD PTR [rax+6200]
  00015	48 8b 44 24 30	 mov	 rax, QWORD PTR vm$[rsp]
  0001a	48 8b 88 50 19
	00 00		 mov	 rcx, QWORD PTR [rax+6480]
  00021	e8 00 00 00 00	 call	 simple_list_newlist_gc
  00026	48 8b 4c 24 30	 mov	 rcx, QWORD PTR vm$[rsp]
  0002b	48 89 81 40 18
	00 00		 mov	 QWORD PTR [rcx+6208], rax
; Line 28
  00032	48 8b 44 24 30	 mov	 rax, QWORD PTR vm$[rsp]
  00037	8b 80 ec 18 00
	00		 mov	 eax, DWORD PTR [rax+6380]
  0003d	ff c0		 inc	 eax
  0003f	48 8b 4c 24 30	 mov	 rcx, QWORD PTR vm$[rsp]
  00044	89 81 ec 18 00
	00		 mov	 DWORD PTR [rcx+6380], eax
; Line 29
  0004a	48 8b 44 24 30	 mov	 rax, QWORD PTR vm$[rsp]
  0004f	44 8b 80 ec 18
	00 00		 mov	 r8d, DWORD PTR [rax+6380]
  00056	48 8b 44 24 30	 mov	 rax, QWORD PTR vm$[rsp]
  0005b	48 8b 90 f0 18
	00 00		 mov	 rdx, QWORD PTR [rax+6384]
  00062	48 8b 44 24 30	 mov	 rax, QWORD PTR vm$[rsp]
  00067	48 8b 88 50 19
	00 00		 mov	 rcx, QWORD PTR [rax+6480]
  0006e	e8 00 00 00 00	 call	 simple_list_addint_gc
; Line 30
  00073	48 8b 44 24 30	 mov	 rax, QWORD PTR vm$[rsp]
  00078	48 8b 4c 24 30	 mov	 rcx, QWORD PTR vm$[rsp]
  0007d	8b 89 ec 18 00
	00		 mov	 ecx, DWORD PTR [rcx+6380]
  00083	89 88 f8 18 00
	00		 mov	 DWORD PTR [rax+6392], ecx
; Line 31
  00089	48 83 c4 28	 add	 rsp, 40			; 00000028H
  0008d	c3		 ret	 0
simple_vm_newscope ENDP
_TEXT	ENDS
END
