; Listing generated by Microsoft (R) Optimizing Compiler Version 17.00.50727.1 

include listing.inc

INCLUDELIB LIBCMT
INCLUDELIB OLDNAMES

_DATA	SEGMENT
$SG82439 DB	'RUNTIME ERROR 6 : String letter assignment is to one cha'
	DB	'racter only', 00H
	ORG $+4
$SG82441 DB	'RUNTIME ERROR 7 : The variable is not a string ', 00H
$SG82452 DB	'RUNTIME ERROR 2 : Array Access (Index out of range) ', 00H
_DATA	ENDS
PUBLIC	simple_vm_stsimple_pushv
PUBLIC	simple_vm_stsimple_assignment
PUBLIC	simple_vm_stsimple_index
PUBLIC	simple_vm_try
PUBLIC	simple_vm_catch
PUBLIC	simple_vm_finally
EXTRN	__report_rangecheckfailure:PROC
EXTRN	simple_string_new_gc:PROC
EXTRN	simple_string_delete_gc:PROC
EXTRN	simple_string_size:PROC
EXTRN	simple_itemarray_setpointer:PROC
EXTRN	simple_itemarray_setstring:PROC
EXTRN	simple_list_getitem:PROC
EXTRN	simple_list_deleteitem_gc:PROC
EXTRN	simple_list_addint_gc:PROC
EXTRN	simple_list_setstsimple_gc:PROC
EXTRN	simple_list_newlist_gc:PROC
EXTRN	simple_list_getlist:PROC
EXTRN	simple_vm_error:PROC
EXTRN	simple_vm_savestate:PROC
EXTRN	simple_vm_restorestate:PROC
EXTRN	simple_vm_getglobalscope:PROC
EXTRN	list_index:DWORD
EXTRN	_fltused:DWORD
pdata	SEGMENT
$pdata$simple_vm_stsimple_pushv DD imagerel $LN5
	DD	imagerel $LN5+193
	DD	imagerel $unwind$simple_vm_stsimple_pushv
$pdata$simple_vm_stsimple_assignment DD imagerel $LN7
	DD	imagerel $LN7+323
	DD	imagerel $unwind$simple_vm_stsimple_assignment
$pdata$simple_vm_stsimple_index DD imagerel $LN5
	DD	imagerel $LN5+256
	DD	imagerel $unwind$simple_vm_stsimple_index
$pdata$simple_vm_try DD imagerel $LN3
	DD	imagerel $LN3+129
	DD	imagerel $unwind$simple_vm_try
$pdata$simple_vm_catch DD imagerel $LN3
	DD	imagerel $LN3+187
	DD	imagerel $unwind$simple_vm_catch
$pdata$simple_vm_finally DD imagerel $LN3
	DD	imagerel $LN3+59
	DD	imagerel $unwind$simple_vm_finally
pdata	ENDS
xdata	SEGMENT
$unwind$simple_vm_stsimple_pushv DD 010901H
	DD	08209H
$unwind$simple_vm_stsimple_assignment DD 010901H
	DD	06209H
$unwind$simple_vm_stsimple_index DD 011401H
	DD	06214H
$unwind$simple_vm_try DD 010901H
	DD	06209H
$unwind$simple_vm_catch DD 010e01H
	DD	0620eH
$unwind$simple_vm_finally DD 010901H
	DD	04209H
xdata	ENDS
; Function compile flags: /Odtp
_TEXT	SEGMENT
vm$ = 48
simple_vm_finally PROC
; File c:\users\thecarisma\documents\simple_github\simple\simple\sources\simple_vmstrindex.c
; Line 94
$LN3:
  00000	48 89 4c 24 08	 mov	 QWORD PTR [rsp+8], rcx
  00005	48 83 ec 28	 sub	 rsp, 40			; 00000028H
; Line 95
  00009	48 8b 44 24 30	 mov	 rax, QWORD PTR vm$[rsp]
  0000e	48 8b 80 b8 18
	00 00		 mov	 rax, QWORD PTR [rax+6328]
  00015	44 8b 40 10	 mov	 r8d, DWORD PTR [rax+16]
  00019	48 8b 44 24 30	 mov	 rax, QWORD PTR vm$[rsp]
  0001e	48 8b 90 b8 18
	00 00		 mov	 rdx, QWORD PTR [rax+6328]
  00025	48 8b 44 24 30	 mov	 rax, QWORD PTR vm$[rsp]
  0002a	48 8b 88 50 19
	00 00		 mov	 rcx, QWORD PTR [rax+6480]
  00031	e8 00 00 00 00	 call	 simple_list_deleteitem_gc
; Line 96
  00036	48 83 c4 28	 add	 rsp, 40			; 00000028H
  0003a	c3		 ret	 0
simple_vm_finally ENDP
_TEXT	ENDS
; Function compile flags: /Odtp
_TEXT	SEGMENT
list$ = 32
vm$ = 64
cError$ = 72
simple_vm_catch PROC
; File c:\users\thecarisma\documents\simple_github\simple\simple\sources\simple_vmstrindex.c
; Line 80
$LN3:
  00000	48 89 54 24 10	 mov	 QWORD PTR [rsp+16], rdx
  00005	48 89 4c 24 08	 mov	 QWORD PTR [rsp+8], rcx
  0000a	48 83 ec 38	 sub	 rsp, 56			; 00000038H
; Line 82
  0000e	48 8b 44 24 40	 mov	 rax, QWORD PTR vm$[rsp]
  00013	48 8b 80 b8 18
	00 00		 mov	 rax, QWORD PTR [rax+6328]
  0001a	8b 50 10	 mov	 edx, DWORD PTR [rax+16]
  0001d	48 8b 44 24 40	 mov	 rax, QWORD PTR vm$[rsp]
  00022	48 8b 88 b8 18
	00 00		 mov	 rcx, QWORD PTR [rax+6328]
  00029	e8 00 00 00 00	 call	 simple_list_getlist
  0002e	48 89 44 24 20	 mov	 QWORD PTR list$[rsp], rax
; Line 83
  00033	ba 01 00 00 00	 mov	 edx, 1
  00038	48 8b 4c 24 20	 mov	 rcx, QWORD PTR list$[rsp]
  0003d	e8 00 00 00 00	 call	 simple_list_getitem
  00042	48 8b 4c 24 40	 mov	 rcx, QWORD PTR vm$[rsp]
  00047	8b 40 08	 mov	 eax, DWORD PTR [rax+8]
  0004a	89 01		 mov	 DWORD PTR [rcx], eax
; Line 84
  0004c	41 b9 01 00 00
	00		 mov	 r9d, 1
  00052	41 b8 02 00 00
	00		 mov	 r8d, 2
  00058	48 8b 54 24 20	 mov	 rdx, QWORD PTR list$[rsp]
  0005d	48 8b 4c 24 40	 mov	 rcx, QWORD PTR vm$[rsp]
  00062	e8 00 00 00 00	 call	 simple_vm_restorestate
; Line 86
  00067	48 8b 4c 24 40	 mov	 rcx, QWORD PTR vm$[rsp]
  0006c	e8 00 00 00 00	 call	 simple_vm_getglobalscope
  00071	ba 06 00 00 00	 mov	 edx, 6
  00076	48 8b c8	 mov	 rcx, rax
  00079	e8 00 00 00 00	 call	 simple_list_getlist
  0007e	4c 8b 4c 24 48	 mov	 r9, QWORD PTR cError$[rsp]
  00083	41 b8 03 00 00
	00		 mov	 r8d, 3
  00089	48 8b d0	 mov	 rdx, rax
  0008c	48 8b 44 24 40	 mov	 rax, QWORD PTR vm$[rsp]
  00091	48 8b 88 50 19
	00 00		 mov	 rcx, QWORD PTR [rax+6480]
  00098	e8 00 00 00 00	 call	 simple_list_setstsimple_gc
; Line 88
  0009d	48 8b 44 24 40	 mov	 rax, QWORD PTR vm$[rsp]
  000a2	c7 80 fc 18 00
	00 01 00 00 00	 mov	 DWORD PTR [rax+6396], 1
; Line 90
  000ac	48 8b 4c 24 40	 mov	 rcx, QWORD PTR vm$[rsp]
  000b1	e8 00 00 00 00	 call	 simple_vm_finally
; Line 91
  000b6	48 83 c4 38	 add	 rsp, 56			; 00000038H
  000ba	c3		 ret	 0
simple_vm_catch ENDP
_TEXT	ENDS
; Function compile flags: /Odtp
_TEXT	SEGMENT
list$ = 32
vm$ = 64
simple_vm_try PROC
; File c:\users\thecarisma\documents\simple_github\simple\simple\sources\simple_vmstrindex.c
; Line 71
$LN3:
  00000	48 89 4c 24 08	 mov	 QWORD PTR [rsp+8], rcx
  00005	48 83 ec 38	 sub	 rsp, 56			; 00000038H
; Line 73
  00009	48 8b 44 24 40	 mov	 rax, QWORD PTR vm$[rsp]
  0000e	48 8b 90 b8 18
	00 00		 mov	 rdx, QWORD PTR [rax+6328]
  00015	48 8b 44 24 40	 mov	 rax, QWORD PTR vm$[rsp]
  0001a	48 8b 88 50 19
	00 00		 mov	 rcx, QWORD PTR [rax+6480]
  00021	e8 00 00 00 00	 call	 simple_list_newlist_gc
  00026	48 89 44 24 20	 mov	 QWORD PTR list$[rsp], rax
; Line 74
  0002b	48 8b 44 24 40	 mov	 rax, QWORD PTR vm$[rsp]
  00030	48 8b 80 58 18
	00 00		 mov	 rax, QWORD PTR [rax+6232]
  00037	b9 08 00 00 00	 mov	 ecx, 8
  0003c	48 6b c9 01	 imul	 rcx, 1
  00040	48 8b 04 08	 mov	 rax, QWORD PTR [rax+rcx]
  00044	44 8b 40 08	 mov	 r8d, DWORD PTR [rax+8]
  00048	48 8b 54 24 20	 mov	 rdx, QWORD PTR list$[rsp]
  0004d	48 8b 44 24 40	 mov	 rax, QWORD PTR vm$[rsp]
  00052	48 8b 88 50 19
	00 00		 mov	 rcx, QWORD PTR [rax+6480]
  00059	e8 00 00 00 00	 call	 simple_list_addint_gc
; Line 75
  0005e	48 8b 54 24 20	 mov	 rdx, QWORD PTR list$[rsp]
  00063	48 8b 4c 24 40	 mov	 rcx, QWORD PTR vm$[rsp]
  00068	e8 00 00 00 00	 call	 simple_vm_savestate
; Line 76
  0006d	48 8b 44 24 40	 mov	 rax, QWORD PTR vm$[rsp]
  00072	c7 80 fc 18 00
	00 00 00 00 00	 mov	 DWORD PTR [rax+6396], 0
; Line 77
  0007c	48 83 c4 38	 add	 rsp, 56			; 00000038H
  00080	c3		 ret	 0
simple_vm_try ENDP
_TEXT	ENDS
; Function compile flags: /Odtp
_TEXT	SEGMENT
newstr$ = 32
vm$ = 64
string$ = 72
nNum1$ = 80
simple_vm_stsimple_index PROC
; File c:\users\thecarisma\documents\simple_github\simple\simple\sources\simple_vmstrindex.c
; Line 55
$LN5:
  00000	f2 0f 11 54 24
	18		 movsdx	 QWORD PTR [rsp+24], xmm2
  00006	48 89 54 24 10	 mov	 QWORD PTR [rsp+16], rdx
  0000b	48 89 4c 24 08	 mov	 QWORD PTR [rsp+8], rcx
  00010	48 83 ec 38	 sub	 rsp, 56			; 00000038H
; Line 58
  00014	f2 0f 2a 05 00
	00 00 00	 cvtsi2sd xmm0, DWORD PTR list_index
  0001c	66 0f 2f 44 24
	50		 comisd	 xmm0, QWORD PTR nNum1$[rsp]
  00022	77 1a		 ja	 SHORT $LN1@simple_vm_
  00024	48 8b 4c 24 48	 mov	 rcx, QWORD PTR string$[rsp]
  00029	e8 00 00 00 00	 call	 simple_string_size
  0002e	f2 0f 2a c0	 cvtsi2sd xmm0, eax
  00032	f2 0f 10 4c 24
	50		 movsdx	 xmm1, QWORD PTR nNum1$[rsp]
  00038	66 0f 2f c8	 comisd	 xmm1, xmm0
  0003c	76 16		 jbe	 SHORT $LN2@simple_vm_
$LN1@simple_vm_:
; Line 59
  0003e	48 8d 15 00 00
	00 00		 lea	 rdx, OFFSET FLAT:$SG82452
  00045	48 8b 4c 24 40	 mov	 rcx, QWORD PTR vm$[rsp]
  0004a	e8 00 00 00 00	 call	 simple_vm_error
; Line 60
  0004f	e9 a7 00 00 00	 jmp	 $LN3@simple_vm_
$LN2@simple_vm_:
; Line 62
  00054	48 8b 44 24 48	 mov	 rax, QWORD PTR string$[rsp]
  00059	48 8b 00	 mov	 rax, QWORD PTR [rax]
  0005c	48 89 44 24 20	 mov	 QWORD PTR newstr$[rsp], rax
; Line 63
  00061	f2 0f 2a 05 00
	00 00 00	 cvtsi2sd xmm0, DWORD PTR list_index
  00069	f2 0f 10 4c 24
	50		 movsdx	 xmm1, QWORD PTR nNum1$[rsp]
  0006f	f2 0f 5c c8	 subsd	 xmm1, xmm0
  00073	0f 28 c1	 movaps	 xmm0, xmm1
  00076	f2 0f 2c c0	 cvttsd2si eax, xmm0
  0007a	48 98		 cdqe
  0007c	48 8b 4c 24 20	 mov	 rcx, QWORD PTR newstr$[rsp]
  00081	48 03 c8	 add	 rcx, rax
  00084	48 8b c1	 mov	 rax, rcx
  00087	48 89 44 24 20	 mov	 QWORD PTR newstr$[rsp], rax
; Line 64
  0008c	48 8b 44 24 40	 mov	 rax, QWORD PTR vm$[rsp]
  00091	0f b6 80 30 18
	00 00		 movzx	 eax, BYTE PTR [rax+6192]
  00098	fe c0		 inc	 al
  0009a	48 8b 4c 24 40	 mov	 rcx, QWORD PTR vm$[rsp]
  0009f	88 81 30 18 00
	00		 mov	 BYTE PTR [rcx+6192], al
  000a5	48 8b 44 24 40	 mov	 rax, QWORD PTR vm$[rsp]
  000aa	0f b6 80 30 18
	00 00		 movzx	 eax, BYTE PTR [rax+6192]
  000b1	48 8b 4c 24 40	 mov	 rcx, QWORD PTR vm$[rsp]
  000b6	48 83 c1 30	 add	 rcx, 48			; 00000030H
  000ba	4c 8b 44 24 20	 mov	 r8, QWORD PTR newstr$[rsp]
  000bf	8b d0		 mov	 edx, eax
  000c1	e8 00 00 00 00	 call	 simple_itemarray_setpointer
; Line 65
  000c6	48 8b 44 24 40	 mov	 rax, QWORD PTR vm$[rsp]
  000cb	0f b6 80 30 18
	00 00		 movzx	 eax, BYTE PTR [rax+6192]
  000d2	48 6b c0 18	 imul	 rax, 24
  000d6	48 8b 4c 24 40	 mov	 rcx, QWORD PTR vm$[rsp]
  000db	8b 44 01 30	 mov	 eax, DWORD PTR [rcx+rax+48]
  000df	83 c8 60	 or	 eax, 96			; 00000060H
  000e2	48 8b 4c 24 40	 mov	 rcx, QWORD PTR vm$[rsp]
  000e7	0f b6 89 30 18
	00 00		 movzx	 ecx, BYTE PTR [rcx+6192]
  000ee	48 6b c9 18	 imul	 rcx, 24
  000f2	48 8b 54 24 40	 mov	 rdx, QWORD PTR vm$[rsp]
  000f7	89 44 0a 30	 mov	 DWORD PTR [rdx+rcx+48], eax
$LN3@simple_vm_:
; Line 66
  000fb	48 83 c4 38	 add	 rsp, 56			; 00000038H
  000ff	c3		 ret	 0
simple_vm_stsimple_index ENDP
_TEXT	ENDS
; Function compile flags: /Odtp
_TEXT	SEGMENT
string_one$ = 32
newstr$ = 40
vm$ = 64
simple_vm_stsimple_assignment PROC
; File c:\users\thecarisma\documents\simple_github\simple\simple\sources\simple_vmstrindex.c
; Line 31
$LN7:
  00000	48 89 4c 24 08	 mov	 QWORD PTR [rsp+8], rcx
  00005	48 83 ec 38	 sub	 rsp, 56			; 00000038H
; Line 34
  00009	48 8b 44 24 40	 mov	 rax, QWORD PTR vm$[rsp]
  0000e	0f b6 80 30 18
	00 00		 movzx	 eax, BYTE PTR [rax+6192]
  00015	48 6b c0 18	 imul	 rax, 24
  00019	48 8b 4c 24 40	 mov	 rcx, QWORD PTR vm$[rsp]
  0001e	8b 44 01 30	 mov	 eax, DWORD PTR [rcx+rax+48]
  00022	83 e0 07	 and	 eax, 7
  00025	83 f8 01	 cmp	 eax, 1
  00028	0f 85 ff 00 00
	00		 jne	 $LN4@simple_vm_
; Line 35
  0002e	48 8b 44 24 40	 mov	 rax, QWORD PTR vm$[rsp]
  00033	0f b6 80 30 18
	00 00		 movzx	 eax, BYTE PTR [rax+6192]
  0003a	48 6b c0 18	 imul	 rax, 24
  0003e	48 8b 4c 24 40	 mov	 rcx, QWORD PTR vm$[rsp]
  00043	48 8b 44 01 38	 mov	 rax, QWORD PTR [rcx+rax+56]
  00048	48 8b 10	 mov	 rdx, QWORD PTR [rax]
  0004b	48 8b 44 24 40	 mov	 rax, QWORD PTR vm$[rsp]
  00050	48 8b 88 50 19
	00 00		 mov	 rcx, QWORD PTR [rax+6480]
  00057	e8 00 00 00 00	 call	 simple_string_new_gc
  0005c	48 89 44 24 20	 mov	 QWORD PTR string_one$[rsp], rax
; Line 36
  00061	48 8b 44 24 40	 mov	 rax, QWORD PTR vm$[rsp]
  00066	0f b6 80 30 18
	00 00		 movzx	 eax, BYTE PTR [rax+6192]
  0006d	fe c8		 dec	 al
  0006f	48 8b 4c 24 40	 mov	 rcx, QWORD PTR vm$[rsp]
  00074	88 81 30 18 00
	00		 mov	 BYTE PTR [rcx+6192], al
; Line 37
  0007a	48 8b 4c 24 20	 mov	 rcx, QWORD PTR string_one$[rsp]
  0007f	e8 00 00 00 00	 call	 simple_string_size
  00084	83 f8 01	 cmp	 eax, 1
  00087	75 79		 jne	 SHORT $LN3@simple_vm_
; Line 38
  00089	48 8b 44 24 40	 mov	 rax, QWORD PTR vm$[rsp]
  0008e	0f b6 80 30 18
	00 00		 movzx	 eax, BYTE PTR [rax+6192]
  00095	48 6b c0 18	 imul	 rax, 24
  00099	48 8b 4c 24 40	 mov	 rcx, QWORD PTR vm$[rsp]
  0009e	48 8b 44 01 38	 mov	 rax, QWORD PTR [rcx+rax+56]
  000a3	48 89 44 24 28	 mov	 QWORD PTR newstr$[rsp], rax
; Line 39
  000a8	48 8b 44 24 40	 mov	 rax, QWORD PTR vm$[rsp]
  000ad	0f b6 80 30 18
	00 00		 movzx	 eax, BYTE PTR [rax+6192]
  000b4	fe c8		 dec	 al
  000b6	48 8b 4c 24 40	 mov	 rcx, QWORD PTR vm$[rsp]
  000bb	88 81 30 18 00
	00		 mov	 BYTE PTR [rcx+6192], al
; Line 40
  000c1	b8 01 00 00 00	 mov	 eax, 1
  000c6	48 6b c0 00	 imul	 rax, 0
  000ca	48 8b 4c 24 20	 mov	 rcx, QWORD PTR string_one$[rsp]
  000cf	48 8b 09	 mov	 rcx, QWORD PTR [rcx]
  000d2	ba 01 00 00 00	 mov	 edx, 1
  000d7	48 6b d2 00	 imul	 rdx, 0
  000db	4c 8b 44 24 28	 mov	 r8, QWORD PTR newstr$[rsp]
  000e0	0f b6 04 08	 movzx	 eax, BYTE PTR [rax+rcx]
  000e4	41 88 04 10	 mov	 BYTE PTR [r8+rdx], al
; Line 41
  000e8	48 8b 54 24 20	 mov	 rdx, QWORD PTR string_one$[rsp]
  000ed	48 8b 44 24 40	 mov	 rax, QWORD PTR vm$[rsp]
  000f2	48 8b 88 50 19
	00 00		 mov	 rcx, QWORD PTR [rax+6480]
  000f9	e8 00 00 00 00	 call	 simple_string_delete_gc
; Line 42
  000fe	eb 3e		 jmp	 SHORT $LN5@simple_vm_
; Line 43
  00100	eb 29		 jmp	 SHORT $LN2@simple_vm_
$LN3@simple_vm_:
; Line 44
  00102	48 8b 54 24 20	 mov	 rdx, QWORD PTR string_one$[rsp]
  00107	48 8b 44 24 40	 mov	 rax, QWORD PTR vm$[rsp]
  0010c	48 8b 88 50 19
	00 00		 mov	 rcx, QWORD PTR [rax+6480]
  00113	e8 00 00 00 00	 call	 simple_string_delete_gc
; Line 45
  00118	48 8d 15 00 00
	00 00		 lea	 rdx, OFFSET FLAT:$SG82439
  0011f	48 8b 4c 24 40	 mov	 rcx, QWORD PTR vm$[rsp]
  00124	e8 00 00 00 00	 call	 simple_vm_error
; Line 46
  00129	eb 13		 jmp	 SHORT $LN5@simple_vm_
$LN2@simple_vm_:
; Line 48
  0012b	eb 11		 jmp	 SHORT $LN1@simple_vm_
$LN4@simple_vm_:
; Line 49
  0012d	48 8d 15 00 00
	00 00		 lea	 rdx, OFFSET FLAT:$SG82441
  00134	48 8b 4c 24 40	 mov	 rcx, QWORD PTR vm$[rsp]
  00139	e8 00 00 00 00	 call	 simple_vm_error
$LN1@simple_vm_:
$LN5@simple_vm_:
; Line 52
  0013e	48 83 c4 38	 add	 rsp, 56			; 00000038H
  00142	c3		 ret	 0
simple_vm_stsimple_assignment ENDP
_TEXT	ENDS
; Function compile flags: /Odtp
_TEXT	SEGMENT
cStr$ = 32
$T1 = 40
newstr$ = 48
vm$ = 80
simple_vm_stsimple_pushv PROC
; File c:\users\thecarisma\documents\simple_github\simple\simple\sources\simple_vmstrindex.c
; Line 20
$LN5:
  00000	48 89 4c 24 08	 mov	 QWORD PTR [rsp+8], rcx
  00005	48 83 ec 48	 sub	 rsp, 72			; 00000048H
; Line 23
  00009	48 8b 44 24 50	 mov	 rax, QWORD PTR vm$[rsp]
  0000e	0f b6 80 30 18
	00 00		 movzx	 eax, BYTE PTR [rax+6192]
  00015	48 6b c0 18	 imul	 rax, 24
  00019	48 8b 4c 24 50	 mov	 rcx, QWORD PTR vm$[rsp]
  0001e	48 8b 44 01 38	 mov	 rax, QWORD PTR [rcx+rax+56]
  00023	48 89 44 24 30	 mov	 QWORD PTR newstr$[rsp], rax
; Line 24
  00028	48 8b 44 24 50	 mov	 rax, QWORD PTR vm$[rsp]
  0002d	0f b6 80 30 18
	00 00		 movzx	 eax, BYTE PTR [rax+6192]
  00034	fe c8		 dec	 al
  00036	48 8b 4c 24 50	 mov	 rcx, QWORD PTR vm$[rsp]
  0003b	88 81 30 18 00
	00		 mov	 BYTE PTR [rcx+6192], al
; Line 25
  00041	b8 01 00 00 00	 mov	 eax, 1
  00046	48 6b c0 00	 imul	 rax, 0
  0004a	b9 01 00 00 00	 mov	 ecx, 1
  0004f	48 6b c9 00	 imul	 rcx, 0
  00053	48 8b 54 24 30	 mov	 rdx, QWORD PTR newstr$[rsp]
  00058	0f b6 04 02	 movzx	 eax, BYTE PTR [rdx+rax]
  0005c	88 44 0c 20	 mov	 BYTE PTR cStr$[rsp+rcx], al
; Line 26
  00060	48 c7 44 24 28
	01 00 00 00	 mov	 QWORD PTR $T1[rsp], 1
  00069	48 83 7c 24 28
	02		 cmp	 QWORD PTR $T1[rsp], 2
  0006f	73 02		 jae	 SHORT $LN3@simple_vm_
  00071	eb 05		 jmp	 SHORT $LN4@simple_vm_
$LN3@simple_vm_:
  00073	e8 00 00 00 00	 call	 __report_rangecheckfailure
$LN4@simple_vm_:
  00078	48 8b 44 24 28	 mov	 rax, QWORD PTR $T1[rsp]
  0007d	c6 44 04 20 00	 mov	 BYTE PTR cStr$[rsp+rax], 0
; Line 27
  00082	48 8b 44 24 50	 mov	 rax, QWORD PTR vm$[rsp]
  00087	0f b6 80 30 18
	00 00		 movzx	 eax, BYTE PTR [rax+6192]
  0008e	fe c0		 inc	 al
  00090	48 8b 4c 24 50	 mov	 rcx, QWORD PTR vm$[rsp]
  00095	88 81 30 18 00
	00		 mov	 BYTE PTR [rcx+6192], al
  0009b	48 8b 44 24 50	 mov	 rax, QWORD PTR vm$[rsp]
  000a0	0f b6 80 30 18
	00 00		 movzx	 eax, BYTE PTR [rax+6192]
  000a7	48 8b 4c 24 50	 mov	 rcx, QWORD PTR vm$[rsp]
  000ac	48 83 c1 30	 add	 rcx, 48			; 00000030H
  000b0	4c 8d 44 24 20	 lea	 r8, QWORD PTR cStr$[rsp]
  000b5	8b d0		 mov	 edx, eax
  000b7	e8 00 00 00 00	 call	 simple_itemarray_setstring
$LN2@simple_vm_:
; Line 28
  000bc	48 83 c4 48	 add	 rsp, 72			; 00000048H
  000c0	c3		 ret	 0
simple_vm_stsimple_pushv ENDP
_TEXT	ENDS
END
