; Listing generated by Microsoft (R) Optimizing Compiler Version 17.00.50727.1 

include listing.inc

INCLUDELIB LIBCMT
INCLUDELIB OLDNAMES

_DATA	SEGMENT
$SG82431 DB	0aH, 'Error (E2) : Out of Memory!', 0aH, 00H
	ORG $+2
$SG82436 DB	0aH, 'Error (E2) : Out of Memory!', 0aH, 00H
	ORG $+2
$SG82465 DB	0aH, 'Error (E2) : Out of Memory!', 0aH, 00H
	ORG $+2
$SG82570 DB	0aH, 'Error (E2) : Out of Memory!', 0aH, 00H
	ORG $+2
$SG82593 DB	0aH, ' LinkedList (%d) : Key (%s) ', 0aH, 00H
	ORG $+1
$SG82599 DB	0aH, 'Simple - HashTable Test', 00H
	ORG $+3
$SG82601 DB	'one', 00H
$SG82600 DB	0aH, 'Create HashTable Items ', 00H
	ORG $+3
$SG82602 DB	'two', 00H
$SG82603 DB	'three', 00H
	ORG $+2
$SG82604 DB	'four', 00H
	ORG $+3
$SG82605 DB	'five', 00H
	ORG $+3
$SG82606 DB	'six', 00H
$SG82607 DB	'seven', 00H
	ORG $+2
$SG82608 DB	'eight', 00H
	ORG $+2
$SG82609 DB	'nine', 00H
	ORG $+3
$SG82610 DB	'ten', 00H
$SG82611 DB	'mypointer', 00H
	ORG $+2
$SG82615 DB	'test%d', 00H
	ORG $+1
$SG82618 DB	'one', 00H
$SG82616 DB	0aH, 'Print HashTable Items ', 00H
$SG82617 DB	0aH, 'Find Items ', 00H
	ORG $+3
$SG82619 DB	0aH, ' Item : one - nIndex : %d', 00H
	ORG $+1
$SG82620 DB	'five', 00H
	ORG $+3
$SG82622 DB	'two', 00H
$SG82621 DB	0aH, ' Item : five - nIndex : %d', 00H
	ORG $+4
$SG82623 DB	0aH, ' Item : two - nIndex : %d', 00H
	ORG $+1
$SG82624 DB	'four', 00H
	ORG $+7
$SG82625 DB	0aH, ' Item : four - nIndex : %d', 00H
$SG82626 DB	'three', 00H
	ORG $+6
$SG82627 DB	0aH, ' Item : three - nIndex : %d', 00H
	ORG $+3
$SG82628 DB	'three', 00H
	ORG $+2
$SG82629 DB	'three', 00H
	ORG $+2
$SG82630 DB	0aH, ' Item : three After Delete - nIndex : %d', 00H
	ORG $+6
$SG82632 DB	'mypointer', 00H
	ORG $+6
$SG82633 DB	0aH, ' Item : mypointer - pointer : %s ', 00H
	ORG $+5
$SG82634 DB	0aH, 'Delete HashTable ', 00H
	ORG $+5
$SG82635 DB	0aH, 'End of HashTable Test ', 00H
_DATA	ENDS
PUBLIC	simple_hashtable_new_gc
PUBLIC	simple_hashtable_hashkey
PUBLIC	simple_hashtable_newitem_gc
PUBLIC	simple_hashtable_newnumber_gc
PUBLIC	simple_hashtable_newpointer_gc
PUBLIC	simple_hashtable_finditem
PUBLIC	simple_hashtable_findnumber
PUBLIC	simple_hashtable_findpointer
PUBLIC	simple_hashtable_deleteitem_gc
PUBLIC	simple_hashtable_delete_gc
PUBLIC	simple_hashtable_print
PUBLIC	simple_hashtable_test
PUBLIC	simple_hashtable_rebuild_gc
PUBLIC	simple_hashtable_new
PUBLIC	simple_hashtable_newitem
PUBLIC	simple_hashtable_deleteitem
PUBLIC	simple_hashtable_delete
PUBLIC	simple_hashtable_rebuild
PUBLIC	simple_hashtable_newnumber
PUBLIC	simple_hashtable_newpointer
EXTRN	exit:PROC
EXTRN	printf:PROC
EXTRN	puts:PROC
EXTRN	sprintf:PROC
EXTRN	strcmp:PROC
EXTRN	strlen:PROC
EXTRN	strdup:PROC
EXTRN	simple_murmur3_32:PROC
EXTRN	simple_state_malloc:PROC
EXTRN	simple_state_free:PROC
EXTRN	simple_state_calloc:PROC
EXTRN	__GSHandlerCheck:PROC
EXTRN	__security_check_cookie:PROC
EXTRN	__security_cookie:QWORD
pdata	SEGMENT
$pdata$simple_hashtable_new_gc DD imagerel $LN5
	DD	imagerel $LN5+168
	DD	imagerel $unwind$simple_hashtable_new_gc
$pdata$simple_hashtable_hashkey DD imagerel $LN3
	DD	imagerel $LN3+72
	DD	imagerel $unwind$simple_hashtable_hashkey
$pdata$simple_hashtable_newitem_gc DD imagerel $LN8
	DD	imagerel $LN8+293
	DD	imagerel $unwind$simple_hashtable_newitem_gc
$pdata$simple_hashtable_newnumber_gc DD imagerel $LN3
	DD	imagerel $LN3+90
	DD	imagerel $unwind$simple_hashtable_newnumber_gc
$pdata$simple_hashtable_newpointer_gc DD imagerel $LN3
	DD	imagerel $LN3+92
	DD	imagerel $unwind$simple_hashtable_newpointer_gc
$pdata$simple_hashtable_finditem DD imagerel $LN6
	DD	imagerel $LN6+115
	DD	imagerel $unwind$simple_hashtable_finditem
$pdata$simple_hashtable_findnumber DD imagerel $LN4
	DD	imagerel $LN4+59
	DD	imagerel $unwind$simple_hashtable_findnumber
$pdata$simple_hashtable_findpointer DD imagerel $LN4
	DD	imagerel $LN4+60
	DD	imagerel $unwind$simple_hashtable_findpointer
$pdata$simple_hashtable_deleteitem_gc DD imagerel $LN8
	DD	imagerel $LN8+226
	DD	imagerel $unwind$simple_hashtable_deleteitem_gc
$pdata$simple_hashtable_delete_gc DD imagerel $LN9
	DD	imagerel $LN9+194
	DD	imagerel $unwind$simple_hashtable_delete_gc
$pdata$simple_hashtable_print DD imagerel $LN8
	DD	imagerel $LN8+120
	DD	imagerel $unwind$simple_hashtable_print
$pdata$simple_hashtable_test DD imagerel $LN6
	DD	imagerel $LN6+704
	DD	imagerel $unwind$simple_hashtable_test
$pdata$simple_hashtable_rebuild_gc DD imagerel $LN13
	DD	imagerel $LN13+402
	DD	imagerel $unwind$simple_hashtable_rebuild_gc
$pdata$simple_hashtable_new DD imagerel $LN3
	DD	imagerel $LN3+16
	DD	imagerel $unwind$simple_hashtable_new
$pdata$simple_hashtable_newitem DD imagerel $LN3
	DD	imagerel $LN3+36
	DD	imagerel $unwind$simple_hashtable_newitem
$pdata$simple_hashtable_deleteitem DD imagerel $LN3
	DD	imagerel $LN3+36
	DD	imagerel $unwind$simple_hashtable_deleteitem
$pdata$simple_hashtable_delete DD imagerel $LN3
	DD	imagerel $LN3+26
	DD	imagerel $unwind$simple_hashtable_delete
$pdata$simple_hashtable_rebuild DD imagerel $LN3
	DD	imagerel $LN3+26
	DD	imagerel $unwind$simple_hashtable_rebuild
$pdata$simple_hashtable_newnumber DD imagerel $LN3
	DD	imagerel $LN3+46
	DD	imagerel $unwind$simple_hashtable_newnumber
$pdata$simple_hashtable_newpointer DD imagerel $LN3
	DD	imagerel $LN3+46
	DD	imagerel $unwind$simple_hashtable_newpointer
pdata	ENDS
xdata	SEGMENT
$unwind$simple_hashtable_new_gc DD 010901H
	DD	06209H
$unwind$simple_hashtable_hashkey DD 010e01H
	DD	0620eH
$unwind$simple_hashtable_newitem_gc DD 011301H
	DD	06213H
$unwind$simple_hashtable_newnumber_gc DD 011801H
	DD	06218H
$unwind$simple_hashtable_newpointer_gc DD 011801H
	DD	06218H
$unwind$simple_hashtable_finditem DD 010e01H
	DD	0620eH
$unwind$simple_hashtable_findnumber DD 010e01H
	DD	0620eH
$unwind$simple_hashtable_findpointer DD 010e01H
	DD	0620eH
$unwind$simple_hashtable_deleteitem_gc DD 011301H
	DD	08213H
$unwind$simple_hashtable_delete_gc DD 010e01H
	DD	0820eH
$unwind$simple_hashtable_print DD 010901H
	DD	06209H
$unwind$simple_hashtable_test DD 011319H
	DD	0a204H
	DD	imagerel __GSHandlerCheck
	DD	048H
$unwind$simple_hashtable_rebuild_gc DD 010e01H
	DD	0820eH
$unwind$simple_hashtable_new DD 010401H
	DD	04204H
$unwind$simple_hashtable_newitem DD 010e01H
	DD	0420eH
$unwind$simple_hashtable_deleteitem DD 010e01H
	DD	0420eH
$unwind$simple_hashtable_delete DD 010901H
	DD	04209H
$unwind$simple_hashtable_rebuild DD 010901H
	DD	04209H
$unwind$simple_hashtable_newnumber DD 011301H
	DD	04213H
$unwind$simple_hashtable_newpointer DD 011301H
	DD	04213H
xdata	ENDS
; Function compile flags: /Odtp
_TEXT	SEGMENT
pHashTable$ = 48
cKey$ = 56
x$ = 64
simple_hashtable_newpointer PROC
; File c:\users\thecarisma\documents\simple_github\simple\simple\sources\simple_hashtable.c
; Line 302
$LN3:
  00000	4c 89 44 24 18	 mov	 QWORD PTR [rsp+24], r8
  00005	48 89 54 24 10	 mov	 QWORD PTR [rsp+16], rdx
  0000a	48 89 4c 24 08	 mov	 QWORD PTR [rsp+8], rcx
  0000f	48 83 ec 28	 sub	 rsp, 40			; 00000028H
; Line 303
  00013	4c 8b 4c 24 40	 mov	 r9, QWORD PTR x$[rsp]
  00018	4c 8b 44 24 38	 mov	 r8, QWORD PTR cKey$[rsp]
  0001d	48 8b 54 24 30	 mov	 rdx, QWORD PTR pHashTable$[rsp]
  00022	33 c9		 xor	 ecx, ecx
  00024	e8 00 00 00 00	 call	 simple_hashtable_newpointer_gc
; Line 304
  00029	48 83 c4 28	 add	 rsp, 40			; 00000028H
  0002d	c3		 ret	 0
simple_hashtable_newpointer ENDP
_TEXT	ENDS
; Function compile flags: /Odtp
_TEXT	SEGMENT
pHashTable$ = 48
cKey$ = 56
x$ = 64
simple_hashtable_newnumber PROC
; File c:\users\thecarisma\documents\simple_github\simple\simple\sources\simple_hashtable.c
; Line 297
$LN3:
  00000	44 89 44 24 18	 mov	 DWORD PTR [rsp+24], r8d
  00005	48 89 54 24 10	 mov	 QWORD PTR [rsp+16], rdx
  0000a	48 89 4c 24 08	 mov	 QWORD PTR [rsp+8], rcx
  0000f	48 83 ec 28	 sub	 rsp, 40			; 00000028H
; Line 298
  00013	44 8b 4c 24 40	 mov	 r9d, DWORD PTR x$[rsp]
  00018	4c 8b 44 24 38	 mov	 r8, QWORD PTR cKey$[rsp]
  0001d	48 8b 54 24 30	 mov	 rdx, QWORD PTR pHashTable$[rsp]
  00022	33 c9		 xor	 ecx, ecx
  00024	e8 00 00 00 00	 call	 simple_hashtable_newnumber_gc
; Line 299
  00029	48 83 c4 28	 add	 rsp, 40			; 00000028H
  0002d	c3		 ret	 0
simple_hashtable_newnumber ENDP
_TEXT	ENDS
; Function compile flags: /Odtp
_TEXT	SEGMENT
pHashTable$ = 48
simple_hashtable_rebuild PROC
; File c:\users\thecarisma\documents\simple_github\simple\simple\sources\simple_hashtable.c
; Line 292
$LN3:
  00000	48 89 4c 24 08	 mov	 QWORD PTR [rsp+8], rcx
  00005	48 83 ec 28	 sub	 rsp, 40			; 00000028H
; Line 293
  00009	48 8b 54 24 30	 mov	 rdx, QWORD PTR pHashTable$[rsp]
  0000e	33 c9		 xor	 ecx, ecx
  00010	e8 00 00 00 00	 call	 simple_hashtable_rebuild_gc
; Line 294
  00015	48 83 c4 28	 add	 rsp, 40			; 00000028H
  00019	c3		 ret	 0
simple_hashtable_rebuild ENDP
_TEXT	ENDS
; Function compile flags: /Odtp
_TEXT	SEGMENT
pHashTable$ = 48
simple_hashtable_delete PROC
; File c:\users\thecarisma\documents\simple_github\simple\simple\sources\simple_hashtable.c
; Line 287
$LN3:
  00000	48 89 4c 24 08	 mov	 QWORD PTR [rsp+8], rcx
  00005	48 83 ec 28	 sub	 rsp, 40			; 00000028H
; Line 288
  00009	48 8b 54 24 30	 mov	 rdx, QWORD PTR pHashTable$[rsp]
  0000e	33 c9		 xor	 ecx, ecx
  00010	e8 00 00 00 00	 call	 simple_hashtable_delete_gc
; Line 289
  00015	48 83 c4 28	 add	 rsp, 40			; 00000028H
  00019	c3		 ret	 0
simple_hashtable_delete ENDP
_TEXT	ENDS
; Function compile flags: /Odtp
_TEXT	SEGMENT
pHashTable$ = 48
cKey$ = 56
simple_hashtable_deleteitem PROC
; File c:\users\thecarisma\documents\simple_github\simple\simple\sources\simple_hashtable.c
; Line 282
$LN3:
  00000	48 89 54 24 10	 mov	 QWORD PTR [rsp+16], rdx
  00005	48 89 4c 24 08	 mov	 QWORD PTR [rsp+8], rcx
  0000a	48 83 ec 28	 sub	 rsp, 40			; 00000028H
; Line 283
  0000e	4c 8b 44 24 38	 mov	 r8, QWORD PTR cKey$[rsp]
  00013	48 8b 54 24 30	 mov	 rdx, QWORD PTR pHashTable$[rsp]
  00018	33 c9		 xor	 ecx, ecx
  0001a	e8 00 00 00 00	 call	 simple_hashtable_deleteitem_gc
; Line 284
  0001f	48 83 c4 28	 add	 rsp, 40			; 00000028H
  00023	c3		 ret	 0
simple_hashtable_deleteitem ENDP
_TEXT	ENDS
; Function compile flags: /Odtp
_TEXT	SEGMENT
pHashTable$ = 48
cKey$ = 56
simple_hashtable_newitem PROC
; File c:\users\thecarisma\documents\simple_github\simple\simple\sources\simple_hashtable.c
; Line 277
$LN3:
  00000	48 89 54 24 10	 mov	 QWORD PTR [rsp+16], rdx
  00005	48 89 4c 24 08	 mov	 QWORD PTR [rsp+8], rcx
  0000a	48 83 ec 28	 sub	 rsp, 40			; 00000028H
; Line 278
  0000e	4c 8b 44 24 38	 mov	 r8, QWORD PTR cKey$[rsp]
  00013	48 8b 54 24 30	 mov	 rdx, QWORD PTR pHashTable$[rsp]
  00018	33 c9		 xor	 ecx, ecx
  0001a	e8 00 00 00 00	 call	 simple_hashtable_newitem_gc
; Line 279
  0001f	48 83 c4 28	 add	 rsp, 40			; 00000028H
  00023	c3		 ret	 0
simple_hashtable_newitem ENDP
_TEXT	ENDS
; Function compile flags: /Odtp
_TEXT	SEGMENT
simple_hashtable_new PROC
; File c:\users\thecarisma\documents\simple_github\simple\simple\sources\simple_hashtable.c
; Line 272
$LN3:
  00000	48 83 ec 28	 sub	 rsp, 40			; 00000028H
; Line 273
  00004	33 c9		 xor	 ecx, ecx
  00006	e8 00 00 00 00	 call	 simple_hashtable_new_gc
; Line 274
  0000b	48 83 c4 28	 add	 rsp, 40			; 00000028H
  0000f	c3		 ret	 0
simple_hashtable_new ENDP
_TEXT	ENDS
; Function compile flags: /Odtp
_TEXT	SEGMENT
x$ = 32
nLinkedLists$ = 36
pItem$ = 40
pArray$ = 48
pItem2$ = 56
pState$ = 80
pHashTable$ = 88
simple_hashtable_rebuild_gc PROC
; File c:\users\thecarisma\documents\simple_github\simple\simple\sources\simple_hashtable.c
; Line 180
$LN13:
  00000	48 89 54 24 10	 mov	 QWORD PTR [rsp+16], rdx
  00005	48 89 4c 24 08	 mov	 QWORD PTR [rsp+8], rcx
  0000a	48 83 ec 48	 sub	 rsp, 72			; 00000048H
; Line 184
  0000e	48 8b 44 24 58	 mov	 rax, QWORD PTR pHashTable$[rsp]
  00013	48 8b 4c 24 58	 mov	 rcx, QWORD PTR pHashTable$[rsp]
  00018	8b 49 10	 mov	 ecx, DWORD PTR [rcx+16]
  0001b	39 48 08	 cmp	 DWORD PTR [rax+8], ecx
  0001e	74 05		 je	 SHORT $LN10@simple_has
; Line 185
  00020	e9 68 01 00 00	 jmp	 $LN11@simple_has
$LN10@simple_has:
; Line 187
  00025	48 8b 44 24 58	 mov	 rax, QWORD PTR pHashTable$[rsp]
  0002a	48 8b 00	 mov	 rax, QWORD PTR [rax]
  0002d	48 89 44 24 30	 mov	 QWORD PTR pArray$[rsp], rax
; Line 188
  00032	48 8b 44 24 58	 mov	 rax, QWORD PTR pHashTable$[rsp]
  00037	8b 40 0c	 mov	 eax, DWORD PTR [rax+12]
  0003a	89 44 24 24	 mov	 DWORD PTR nLinkedLists$[rsp], eax
; Line 189
  0003e	48 8b 44 24 58	 mov	 rax, QWORD PTR pHashTable$[rsp]
  00043	8b 40 10	 mov	 eax, DWORD PTR [rax+16]
  00046	6b c0 0a	 imul	 eax, 10
  00049	48 8b 4c 24 58	 mov	 rcx, QWORD PTR pHashTable$[rsp]
  0004e	89 41 10	 mov	 DWORD PTR [rcx+16], eax
; Line 190
  00051	48 8b 44 24 58	 mov	 rax, QWORD PTR pHashTable$[rsp]
  00056	8b 40 0c	 mov	 eax, DWORD PTR [rax+12]
  00059	6b c0 0a	 imul	 eax, 10
  0005c	48 8b 4c 24 58	 mov	 rcx, QWORD PTR pHashTable$[rsp]
  00061	89 41 0c	 mov	 DWORD PTR [rcx+12], eax
; Line 191
  00064	48 8b 44 24 58	 mov	 rax, QWORD PTR pHashTable$[rsp]
  00069	48 63 40 0c	 movsxd	 rax, DWORD PTR [rax+12]
  0006d	41 b8 08 00 00
	00		 mov	 r8d, 8
  00073	48 8b d0	 mov	 rdx, rax
  00076	48 8b 4c 24 50	 mov	 rcx, QWORD PTR pState$[rsp]
  0007b	e8 00 00 00 00	 call	 simple_state_calloc
  00080	48 8b 4c 24 58	 mov	 rcx, QWORD PTR pHashTable$[rsp]
  00085	48 89 01	 mov	 QWORD PTR [rcx], rax
; Line 192
  00088	48 8b 44 24 58	 mov	 rax, QWORD PTR pHashTable$[rsp]
  0008d	48 83 38 00	 cmp	 QWORD PTR [rax], 0
  00091	75 13		 jne	 SHORT $LN9@simple_has
; Line 193
  00093	48 8d 0d 00 00
	00 00		 lea	 rcx, OFFSET FLAT:$SG82570
  0009a	e8 00 00 00 00	 call	 printf
; Line 194
  0009f	33 c9		 xor	 ecx, ecx
  000a1	e8 00 00 00 00	 call	 exit
$LN9@simple_has:
; Line 196
  000a6	c7 44 24 20 00
	00 00 00	 mov	 DWORD PTR x$[rsp], 0
  000ae	eb 0a		 jmp	 SHORT $LN8@simple_has
$LN7@simple_has:
  000b0	8b 44 24 20	 mov	 eax, DWORD PTR x$[rsp]
  000b4	ff c0		 inc	 eax
  000b6	89 44 24 20	 mov	 DWORD PTR x$[rsp], eax
$LN8@simple_has:
  000ba	8b 44 24 24	 mov	 eax, DWORD PTR nLinkedLists$[rsp]
  000be	39 44 24 20	 cmp	 DWORD PTR x$[rsp], eax
  000c2	0f 8d b6 00 00
	00		 jge	 $LN6@simple_has
; Line 197
  000c8	48 63 44 24 20	 movsxd	 rax, DWORD PTR x$[rsp]
  000cd	48 8b 4c 24 30	 mov	 rcx, QWORD PTR pArray$[rsp]
  000d2	48 8b 04 c1	 mov	 rax, QWORD PTR [rcx+rax*8]
  000d6	48 89 44 24 28	 mov	 QWORD PTR pItem$[rsp], rax
$LN5@simple_has:
; Line 198
  000db	48 83 7c 24 28
	00		 cmp	 QWORD PTR pItem$[rsp], 0
  000e1	0f 84 92 00 00
	00		 je	 $LN4@simple_has
; Line 200
  000e7	48 8b 44 24 28	 mov	 rax, QWORD PTR pItem$[rsp]
  000ec	0f be 40 08	 movsx	 eax, BYTE PTR [rax+8]
  000f0	83 f8 01	 cmp	 eax, 1
  000f3	75 1d		 jne	 SHORT $LN3@simple_has
; Line 201
  000f5	48 8b 44 24 28	 mov	 rax, QWORD PTR pItem$[rsp]
  000fa	44 8b 40 10	 mov	 r8d, DWORD PTR [rax+16]
  000fe	48 8b 44 24 28	 mov	 rax, QWORD PTR pItem$[rsp]
  00103	48 8b 10	 mov	 rdx, QWORD PTR [rax]
  00106	48 8b 4c 24 58	 mov	 rcx, QWORD PTR pHashTable$[rsp]
  0010b	e8 00 00 00 00	 call	 simple_hashtable_newnumber
  00110	eb 29		 jmp	 SHORT $LN2@simple_has
$LN3@simple_has:
; Line 203
  00112	48 8b 44 24 28	 mov	 rax, QWORD PTR pItem$[rsp]
  00117	0f be 40 08	 movsx	 eax, BYTE PTR [rax+8]
  0011b	83 f8 02	 cmp	 eax, 2
  0011e	75 1b		 jne	 SHORT $LN1@simple_has
; Line 204
  00120	48 8b 44 24 28	 mov	 rax, QWORD PTR pItem$[rsp]
  00125	4c 8b 40 10	 mov	 r8, QWORD PTR [rax+16]
  00129	48 8b 44 24 28	 mov	 rax, QWORD PTR pItem$[rsp]
  0012e	48 8b 10	 mov	 rdx, QWORD PTR [rax]
  00131	48 8b 4c 24 58	 mov	 rcx, QWORD PTR pHashTable$[rsp]
  00136	e8 00 00 00 00	 call	 simple_hashtable_newpointer
$LN1@simple_has:
$LN2@simple_has:
; Line 206
  0013b	48 8b 44 24 28	 mov	 rax, QWORD PTR pItem$[rsp]
  00140	48 8b 40 18	 mov	 rax, QWORD PTR [rax+24]
  00144	48 89 44 24 38	 mov	 QWORD PTR pItem2$[rsp], rax
; Line 207
  00149	48 8b 44 24 28	 mov	 rax, QWORD PTR pItem$[rsp]
  0014e	48 8b 10	 mov	 rdx, QWORD PTR [rax]
  00151	48 8b 4c 24 50	 mov	 rcx, QWORD PTR pState$[rsp]
  00156	e8 00 00 00 00	 call	 simple_state_free
; Line 208
  0015b	48 8b 54 24 28	 mov	 rdx, QWORD PTR pItem$[rsp]
  00160	48 8b 4c 24 50	 mov	 rcx, QWORD PTR pState$[rsp]
  00165	e8 00 00 00 00	 call	 simple_state_free
; Line 209
  0016a	48 8b 44 24 38	 mov	 rax, QWORD PTR pItem2$[rsp]
  0016f	48 89 44 24 28	 mov	 QWORD PTR pItem$[rsp], rax
; Line 210
  00174	e9 62 ff ff ff	 jmp	 $LN5@simple_has
$LN4@simple_has:
; Line 211
  00179	e9 32 ff ff ff	 jmp	 $LN7@simple_has
$LN6@simple_has:
; Line 212
  0017e	48 8b 54 24 30	 mov	 rdx, QWORD PTR pArray$[rsp]
  00183	48 8b 4c 24 50	 mov	 rcx, QWORD PTR pState$[rsp]
  00188	e8 00 00 00 00	 call	 simple_state_free
$LN11@simple_has:
$LN12@simple_has:
; Line 213
  0018d	48 83 c4 48	 add	 rsp, 72			; 00000048H
  00191	c3		 ret	 0
simple_hashtable_rebuild_gc ENDP
_TEXT	ENDS
; Function compile flags: /Odtp
_TEXT	SEGMENT
pHashTable$ = 32
x$ = 40
cStr$ = 48
__$ArrayPad$ = 72
simple_hashtable_test PROC
; File c:\users\thecarisma\documents\simple_github\simple\simple\sources\simple_hashtable.c
; Line 230
$LN6:
  00000	48 83 ec 58	 sub	 rsp, 88			; 00000058H
  00004	48 8b 05 00 00
	00 00		 mov	 rax, QWORD PTR __security_cookie
  0000b	48 33 c4	 xor	 rax, rsp
  0000e	48 89 44 24 48	 mov	 QWORD PTR __$ArrayPad$[rsp], rax
; Line 234
  00013	48 8d 0d 00 00
	00 00		 lea	 rcx, OFFSET FLAT:$SG82599
  0001a	e8 00 00 00 00	 call	 puts
; Line 235
  0001f	e8 00 00 00 00	 call	 simple_hashtable_new
  00024	48 89 44 24 20	 mov	 QWORD PTR pHashTable$[rsp], rax
; Line 236
  00029	48 8d 0d 00 00
	00 00		 lea	 rcx, OFFSET FLAT:$SG82600
  00030	e8 00 00 00 00	 call	 puts
; Line 238
  00035	41 b8 01 00 00
	00		 mov	 r8d, 1
  0003b	48 8d 15 00 00
	00 00		 lea	 rdx, OFFSET FLAT:$SG82601
  00042	48 8b 4c 24 20	 mov	 rcx, QWORD PTR pHashTable$[rsp]
  00047	e8 00 00 00 00	 call	 simple_hashtable_newnumber
; Line 239
  0004c	41 b8 02 00 00
	00		 mov	 r8d, 2
  00052	48 8d 15 00 00
	00 00		 lea	 rdx, OFFSET FLAT:$SG82602
  00059	48 8b 4c 24 20	 mov	 rcx, QWORD PTR pHashTable$[rsp]
  0005e	e8 00 00 00 00	 call	 simple_hashtable_newnumber
; Line 240
  00063	41 b8 03 00 00
	00		 mov	 r8d, 3
  00069	48 8d 15 00 00
	00 00		 lea	 rdx, OFFSET FLAT:$SG82603
  00070	48 8b 4c 24 20	 mov	 rcx, QWORD PTR pHashTable$[rsp]
  00075	e8 00 00 00 00	 call	 simple_hashtable_newnumber
; Line 241
  0007a	41 b8 04 00 00
	00		 mov	 r8d, 4
  00080	48 8d 15 00 00
	00 00		 lea	 rdx, OFFSET FLAT:$SG82604
  00087	48 8b 4c 24 20	 mov	 rcx, QWORD PTR pHashTable$[rsp]
  0008c	e8 00 00 00 00	 call	 simple_hashtable_newnumber
; Line 242
  00091	41 b8 05 00 00
	00		 mov	 r8d, 5
  00097	48 8d 15 00 00
	00 00		 lea	 rdx, OFFSET FLAT:$SG82605
  0009e	48 8b 4c 24 20	 mov	 rcx, QWORD PTR pHashTable$[rsp]
  000a3	e8 00 00 00 00	 call	 simple_hashtable_newnumber
; Line 243
  000a8	41 b8 06 00 00
	00		 mov	 r8d, 6
  000ae	48 8d 15 00 00
	00 00		 lea	 rdx, OFFSET FLAT:$SG82606
  000b5	48 8b 4c 24 20	 mov	 rcx, QWORD PTR pHashTable$[rsp]
  000ba	e8 00 00 00 00	 call	 simple_hashtable_newnumber
; Line 244
  000bf	41 b8 07 00 00
	00		 mov	 r8d, 7
  000c5	48 8d 15 00 00
	00 00		 lea	 rdx, OFFSET FLAT:$SG82607
  000cc	48 8b 4c 24 20	 mov	 rcx, QWORD PTR pHashTable$[rsp]
  000d1	e8 00 00 00 00	 call	 simple_hashtable_newnumber
; Line 245
  000d6	41 b8 08 00 00
	00		 mov	 r8d, 8
  000dc	48 8d 15 00 00
	00 00		 lea	 rdx, OFFSET FLAT:$SG82608
  000e3	48 8b 4c 24 20	 mov	 rcx, QWORD PTR pHashTable$[rsp]
  000e8	e8 00 00 00 00	 call	 simple_hashtable_newnumber
; Line 246
  000ed	41 b8 09 00 00
	00		 mov	 r8d, 9
  000f3	48 8d 15 00 00
	00 00		 lea	 rdx, OFFSET FLAT:$SG82609
  000fa	48 8b 4c 24 20	 mov	 rcx, QWORD PTR pHashTable$[rsp]
  000ff	e8 00 00 00 00	 call	 simple_hashtable_newnumber
; Line 247
  00104	41 b8 0a 00 00
	00		 mov	 r8d, 10
  0010a	48 8d 15 00 00
	00 00		 lea	 rdx, OFFSET FLAT:$SG82610
  00111	48 8b 4c 24 20	 mov	 rcx, QWORD PTR pHashTable$[rsp]
  00116	e8 00 00 00 00	 call	 simple_hashtable_newnumber
; Line 248
  0011b	4c 8d 44 24 30	 lea	 r8, QWORD PTR cStr$[rsp]
  00120	48 8d 15 00 00
	00 00		 lea	 rdx, OFFSET FLAT:$SG82611
  00127	48 8b 4c 24 20	 mov	 rcx, QWORD PTR pHashTable$[rsp]
  0012c	e8 00 00 00 00	 call	 simple_hashtable_newpointer
; Line 249
  00131	c7 44 24 28 01
	00 00 00	 mov	 DWORD PTR x$[rsp], 1
  00139	eb 0a		 jmp	 SHORT $LN3@simple_has
$LN2@simple_has:
  0013b	8b 44 24 28	 mov	 eax, DWORD PTR x$[rsp]
  0013f	ff c0		 inc	 eax
  00141	89 44 24 28	 mov	 DWORD PTR x$[rsp], eax
$LN3@simple_has:
  00145	83 7c 24 28 64	 cmp	 DWORD PTR x$[rsp], 100	; 00000064H
  0014a	7f 2c		 jg	 SHORT $LN1@simple_has
; Line 250
  0014c	44 8b 44 24 28	 mov	 r8d, DWORD PTR x$[rsp]
  00151	48 8d 15 00 00
	00 00		 lea	 rdx, OFFSET FLAT:$SG82615
  00158	48 8d 4c 24 30	 lea	 rcx, QWORD PTR cStr$[rsp]
  0015d	e8 00 00 00 00	 call	 sprintf
; Line 251
  00162	44 8b 44 24 28	 mov	 r8d, DWORD PTR x$[rsp]
  00167	48 8d 54 24 30	 lea	 rdx, QWORD PTR cStr$[rsp]
  0016c	48 8b 4c 24 20	 mov	 rcx, QWORD PTR pHashTable$[rsp]
  00171	e8 00 00 00 00	 call	 simple_hashtable_newnumber
; Line 252
  00176	eb c3		 jmp	 SHORT $LN2@simple_has
$LN1@simple_has:
; Line 253
  00178	48 8d 0d 00 00
	00 00		 lea	 rcx, OFFSET FLAT:$SG82616
  0017f	e8 00 00 00 00	 call	 puts
; Line 254
  00184	48 8b 4c 24 20	 mov	 rcx, QWORD PTR pHashTable$[rsp]
  00189	e8 00 00 00 00	 call	 simple_hashtable_print
; Line 255
  0018e	48 8d 0d 00 00
	00 00		 lea	 rcx, OFFSET FLAT:$SG82617
  00195	e8 00 00 00 00	 call	 puts
; Line 256
  0019a	48 8d 15 00 00
	00 00		 lea	 rdx, OFFSET FLAT:$SG82618
  001a1	48 8b 4c 24 20	 mov	 rcx, QWORD PTR pHashTable$[rsp]
  001a6	e8 00 00 00 00	 call	 simple_hashtable_findnumber
  001ab	8b d0		 mov	 edx, eax
  001ad	48 8d 0d 00 00
	00 00		 lea	 rcx, OFFSET FLAT:$SG82619
  001b4	e8 00 00 00 00	 call	 printf
; Line 257
  001b9	48 8d 15 00 00
	00 00		 lea	 rdx, OFFSET FLAT:$SG82620
  001c0	48 8b 4c 24 20	 mov	 rcx, QWORD PTR pHashTable$[rsp]
  001c5	e8 00 00 00 00	 call	 simple_hashtable_findnumber
  001ca	8b d0		 mov	 edx, eax
  001cc	48 8d 0d 00 00
	00 00		 lea	 rcx, OFFSET FLAT:$SG82621
  001d3	e8 00 00 00 00	 call	 printf
; Line 258
  001d8	48 8d 15 00 00
	00 00		 lea	 rdx, OFFSET FLAT:$SG82622
  001df	48 8b 4c 24 20	 mov	 rcx, QWORD PTR pHashTable$[rsp]
  001e4	e8 00 00 00 00	 call	 simple_hashtable_findnumber
  001e9	8b d0		 mov	 edx, eax
  001eb	48 8d 0d 00 00
	00 00		 lea	 rcx, OFFSET FLAT:$SG82623
  001f2	e8 00 00 00 00	 call	 printf
; Line 259
  001f7	48 8d 15 00 00
	00 00		 lea	 rdx, OFFSET FLAT:$SG82624
  001fe	48 8b 4c 24 20	 mov	 rcx, QWORD PTR pHashTable$[rsp]
  00203	e8 00 00 00 00	 call	 simple_hashtable_findnumber
  00208	8b d0		 mov	 edx, eax
  0020a	48 8d 0d 00 00
	00 00		 lea	 rcx, OFFSET FLAT:$SG82625
  00211	e8 00 00 00 00	 call	 printf
; Line 260
  00216	48 8d 15 00 00
	00 00		 lea	 rdx, OFFSET FLAT:$SG82626
  0021d	48 8b 4c 24 20	 mov	 rcx, QWORD PTR pHashTable$[rsp]
  00222	e8 00 00 00 00	 call	 simple_hashtable_findnumber
  00227	8b d0		 mov	 edx, eax
  00229	48 8d 0d 00 00
	00 00		 lea	 rcx, OFFSET FLAT:$SG82627
  00230	e8 00 00 00 00	 call	 printf
; Line 261
  00235	48 8d 15 00 00
	00 00		 lea	 rdx, OFFSET FLAT:$SG82628
  0023c	48 8b 4c 24 20	 mov	 rcx, QWORD PTR pHashTable$[rsp]
  00241	e8 00 00 00 00	 call	 simple_hashtable_deleteitem
; Line 262
  00246	48 8d 15 00 00
	00 00		 lea	 rdx, OFFSET FLAT:$SG82629
  0024d	48 8b 4c 24 20	 mov	 rcx, QWORD PTR pHashTable$[rsp]
  00252	e8 00 00 00 00	 call	 simple_hashtable_findnumber
  00257	8b d0		 mov	 edx, eax
  00259	48 8d 0d 00 00
	00 00		 lea	 rcx, OFFSET FLAT:$SG82630
  00260	e8 00 00 00 00	 call	 printf
; Line 263
  00265	48 8d 15 00 00
	00 00		 lea	 rdx, OFFSET FLAT:$SG82632
  0026c	48 8b 4c 24 20	 mov	 rcx, QWORD PTR pHashTable$[rsp]
  00271	e8 00 00 00 00	 call	 simple_hashtable_findpointer
  00276	48 8b d0	 mov	 rdx, rax
  00279	48 8d 0d 00 00
	00 00		 lea	 rcx, OFFSET FLAT:$SG82633
  00280	e8 00 00 00 00	 call	 printf
; Line 264
  00285	48 8d 0d 00 00
	00 00		 lea	 rcx, OFFSET FLAT:$SG82634
  0028c	e8 00 00 00 00	 call	 puts
; Line 265
  00291	48 8b 4c 24 20	 mov	 rcx, QWORD PTR pHashTable$[rsp]
  00296	e8 00 00 00 00	 call	 simple_hashtable_delete
; Line 266
  0029b	48 8d 0d 00 00
	00 00		 lea	 rcx, OFFSET FLAT:$SG82635
  002a2	e8 00 00 00 00	 call	 puts
; Line 267
  002a7	33 c9		 xor	 ecx, ecx
  002a9	e8 00 00 00 00	 call	 exit
$LN5@simple_has:
; Line 268
  002ae	48 8b 4c 24 48	 mov	 rcx, QWORD PTR __$ArrayPad$[rsp]
  002b3	48 33 cc	 xor	 rcx, rsp
  002b6	e8 00 00 00 00	 call	 __security_check_cookie
  002bb	48 83 c4 58	 add	 rsp, 88			; 00000058H
  002bf	c3		 ret	 0
simple_hashtable_test ENDP
_TEXT	ENDS
; Function compile flags: /Odtp
_TEXT	SEGMENT
x$ = 32
pItem$ = 40
pHashTable$ = 64
simple_hashtable_print PROC
; File c:\users\thecarisma\documents\simple_github\simple\simple\sources\simple_hashtable.c
; Line 216
$LN8:
  00000	48 89 4c 24 08	 mov	 QWORD PTR [rsp+8], rcx
  00005	48 83 ec 38	 sub	 rsp, 56			; 00000038H
; Line 219
  00009	c7 44 24 20 00
	00 00 00	 mov	 DWORD PTR x$[rsp], 0
  00011	eb 0a		 jmp	 SHORT $LN5@simple_has
$LN4@simple_has:
  00013	8b 44 24 20	 mov	 eax, DWORD PTR x$[rsp]
  00017	ff c0		 inc	 eax
  00019	89 44 24 20	 mov	 DWORD PTR x$[rsp], eax
$LN5@simple_has:
  0001d	48 8b 44 24 40	 mov	 rax, QWORD PTR pHashTable$[rsp]
  00022	8b 40 0c	 mov	 eax, DWORD PTR [rax+12]
  00025	39 44 24 20	 cmp	 DWORD PTR x$[rsp], eax
  00029	7d 48		 jge	 SHORT $LN3@simple_has
; Line 220
  0002b	48 63 44 24 20	 movsxd	 rax, DWORD PTR x$[rsp]
  00030	48 8b 4c 24 40	 mov	 rcx, QWORD PTR pHashTable$[rsp]
  00035	48 8b 09	 mov	 rcx, QWORD PTR [rcx]
  00038	48 8b 04 c1	 mov	 rax, QWORD PTR [rcx+rax*8]
  0003c	48 89 44 24 28	 mov	 QWORD PTR pItem$[rsp], rax
$LN2@simple_has:
; Line 221
  00041	48 83 7c 24 28
	00		 cmp	 QWORD PTR pItem$[rsp], 0
  00047	74 28		 je	 SHORT $LN1@simple_has
; Line 223
  00049	48 8b 44 24 28	 mov	 rax, QWORD PTR pItem$[rsp]
  0004e	4c 8b 00	 mov	 r8, QWORD PTR [rax]
  00051	8b 54 24 20	 mov	 edx, DWORD PTR x$[rsp]
  00055	48 8d 0d 00 00
	00 00		 lea	 rcx, OFFSET FLAT:$SG82593
  0005c	e8 00 00 00 00	 call	 printf
; Line 224
  00061	48 8b 44 24 28	 mov	 rax, QWORD PTR pItem$[rsp]
  00066	48 8b 40 18	 mov	 rax, QWORD PTR [rax+24]
  0006a	48 89 44 24 28	 mov	 QWORD PTR pItem$[rsp], rax
; Line 225
  0006f	eb d0		 jmp	 SHORT $LN2@simple_has
$LN1@simple_has:
; Line 226
  00071	eb a0		 jmp	 SHORT $LN4@simple_has
$LN3@simple_has:
; Line 227
  00073	48 83 c4 38	 add	 rsp, 56			; 00000038H
  00077	c3		 ret	 0
simple_hashtable_print ENDP
_TEXT	ENDS
; Function compile flags: /Odtp
_TEXT	SEGMENT
x$ = 32
pItem$ = 40
pItem2$ = 48
pState$ = 80
pHashTable$ = 88
simple_hashtable_delete_gc PROC
; File c:\users\thecarisma\documents\simple_github\simple\simple\sources\simple_hashtable.c
; Line 159
$LN9:
  00000	48 89 54 24 10	 mov	 QWORD PTR [rsp+16], rdx
  00005	48 89 4c 24 08	 mov	 QWORD PTR [rsp+8], rcx
  0000a	48 83 ec 48	 sub	 rsp, 72			; 00000048H
; Line 162
  0000e	48 83 7c 24 58
	00		 cmp	 QWORD PTR pHashTable$[rsp], 0
  00014	75 07		 jne	 SHORT $LN6@simple_has
; Line 163
  00016	33 c0		 xor	 eax, eax
  00018	e9 a0 00 00 00	 jmp	 $LN7@simple_has
$LN6@simple_has:
; Line 165
  0001d	c7 44 24 20 00
	00 00 00	 mov	 DWORD PTR x$[rsp], 0
  00025	eb 0a		 jmp	 SHORT $LN5@simple_has
$LN4@simple_has:
  00027	8b 44 24 20	 mov	 eax, DWORD PTR x$[rsp]
  0002b	ff c0		 inc	 eax
  0002d	89 44 24 20	 mov	 DWORD PTR x$[rsp], eax
$LN5@simple_has:
  00031	48 8b 44 24 58	 mov	 rax, QWORD PTR pHashTable$[rsp]
  00036	8b 40 0c	 mov	 eax, DWORD PTR [rax+12]
  00039	39 44 24 20	 cmp	 DWORD PTR x$[rsp], eax
  0003d	7d 5b		 jge	 SHORT $LN3@simple_has
; Line 166
  0003f	48 63 44 24 20	 movsxd	 rax, DWORD PTR x$[rsp]
  00044	48 8b 4c 24 58	 mov	 rcx, QWORD PTR pHashTable$[rsp]
  00049	48 8b 09	 mov	 rcx, QWORD PTR [rcx]
  0004c	48 8b 04 c1	 mov	 rax, QWORD PTR [rcx+rax*8]
  00050	48 89 44 24 28	 mov	 QWORD PTR pItem$[rsp], rax
$LN2@simple_has:
; Line 167
  00055	48 83 7c 24 28
	00		 cmp	 QWORD PTR pItem$[rsp], 0
  0005b	74 3b		 je	 SHORT $LN1@simple_has
; Line 168
  0005d	48 8b 44 24 28	 mov	 rax, QWORD PTR pItem$[rsp]
  00062	48 8b 40 18	 mov	 rax, QWORD PTR [rax+24]
  00066	48 89 44 24 30	 mov	 QWORD PTR pItem2$[rsp], rax
; Line 169
  0006b	48 8b 44 24 28	 mov	 rax, QWORD PTR pItem$[rsp]
  00070	48 8b 10	 mov	 rdx, QWORD PTR [rax]
  00073	48 8b 4c 24 50	 mov	 rcx, QWORD PTR pState$[rsp]
  00078	e8 00 00 00 00	 call	 simple_state_free
; Line 170
  0007d	48 8b 54 24 28	 mov	 rdx, QWORD PTR pItem$[rsp]
  00082	48 8b 4c 24 50	 mov	 rcx, QWORD PTR pState$[rsp]
  00087	e8 00 00 00 00	 call	 simple_state_free
; Line 171
  0008c	48 8b 44 24 30	 mov	 rax, QWORD PTR pItem2$[rsp]
  00091	48 89 44 24 28	 mov	 QWORD PTR pItem$[rsp], rax
; Line 172
  00096	eb bd		 jmp	 SHORT $LN2@simple_has
$LN1@simple_has:
; Line 173
  00098	eb 8d		 jmp	 SHORT $LN4@simple_has
$LN3@simple_has:
; Line 174
  0009a	48 8b 44 24 58	 mov	 rax, QWORD PTR pHashTable$[rsp]
  0009f	48 8b 10	 mov	 rdx, QWORD PTR [rax]
  000a2	48 8b 4c 24 50	 mov	 rcx, QWORD PTR pState$[rsp]
  000a7	e8 00 00 00 00	 call	 simple_state_free
; Line 175
  000ac	48 8b 54 24 58	 mov	 rdx, QWORD PTR pHashTable$[rsp]
  000b1	48 8b 4c 24 50	 mov	 rcx, QWORD PTR pState$[rsp]
  000b6	e8 00 00 00 00	 call	 simple_state_free
; Line 176
  000bb	33 c0		 xor	 eax, eax
$LN7@simple_has:
; Line 177
  000bd	48 83 c4 48	 add	 rsp, 72			; 00000048H
  000c1	c3		 ret	 0
simple_hashtable_delete_gc ENDP
_TEXT	ENDS
; Function compile flags: /Odtp
_TEXT	SEGMENT
nIndex$ = 32
pItem$ = 40
pPrevItem$ = 48
pState$ = 80
pHashTable$ = 88
cKey$ = 96
simple_hashtable_deleteitem_gc PROC
; File c:\users\thecarisma\documents\simple_github\simple\simple\sources\simple_hashtable.c
; Line 134
$LN8:
  00000	4c 89 44 24 18	 mov	 QWORD PTR [rsp+24], r8
  00005	48 89 54 24 10	 mov	 QWORD PTR [rsp+16], rdx
  0000a	48 89 4c 24 08	 mov	 QWORD PTR [rsp+8], rcx
  0000f	48 83 ec 48	 sub	 rsp, 72			; 00000048H
; Line 137
  00013	48 8b 54 24 60	 mov	 rdx, QWORD PTR cKey$[rsp]
  00018	48 8b 4c 24 58	 mov	 rcx, QWORD PTR pHashTable$[rsp]
  0001d	e8 00 00 00 00	 call	 simple_hashtable_hashkey
  00022	89 44 24 20	 mov	 DWORD PTR nIndex$[rsp], eax
; Line 138
  00026	48 63 44 24 20	 movsxd	 rax, DWORD PTR nIndex$[rsp]
  0002b	48 8b 4c 24 58	 mov	 rcx, QWORD PTR pHashTable$[rsp]
  00030	48 8b 09	 mov	 rcx, QWORD PTR [rcx]
  00033	48 8b 04 c1	 mov	 rax, QWORD PTR [rcx+rax*8]
  00037	48 89 44 24 28	 mov	 QWORD PTR pItem$[rsp], rax
; Line 139
  0003c	48 c7 44 24 30
	00 00 00 00	 mov	 QWORD PTR pPrevItem$[rsp], 0
$LN5@simple_has:
; Line 140
  00045	48 83 7c 24 28
	00		 cmp	 QWORD PTR pItem$[rsp], 0
  0004b	0f 84 8c 00 00
	00		 je	 $LN4@simple_has
; Line 142
  00051	48 8b 54 24 60	 mov	 rdx, QWORD PTR cKey$[rsp]
  00056	48 8b 44 24 28	 mov	 rax, QWORD PTR pItem$[rsp]
  0005b	48 8b 08	 mov	 rcx, QWORD PTR [rax]
  0005e	e8 00 00 00 00	 call	 strcmp
  00063	85 c0		 test	 eax, eax
  00065	75 59		 jne	 SHORT $LN3@simple_has
; Line 143
  00067	48 83 7c 24 30
	00		 cmp	 QWORD PTR pPrevItem$[rsp], 0
  0006d	75 1c		 jne	 SHORT $LN2@simple_has
; Line 144
  0006f	48 63 44 24 20	 movsxd	 rax, DWORD PTR nIndex$[rsp]
  00074	48 8b 4c 24 58	 mov	 rcx, QWORD PTR pHashTable$[rsp]
  00079	48 8b 09	 mov	 rcx, QWORD PTR [rcx]
  0007c	48 8b 54 24 28	 mov	 rdx, QWORD PTR pItem$[rsp]
  00081	48 8b 52 18	 mov	 rdx, QWORD PTR [rdx+24]
  00085	48 89 14 c1	 mov	 QWORD PTR [rcx+rax*8], rdx
; Line 146
  00089	eb 12		 jmp	 SHORT $LN1@simple_has
$LN2@simple_has:
; Line 147
  0008b	48 8b 44 24 30	 mov	 rax, QWORD PTR pPrevItem$[rsp]
  00090	48 8b 4c 24 28	 mov	 rcx, QWORD PTR pItem$[rsp]
  00095	48 8b 49 18	 mov	 rcx, QWORD PTR [rcx+24]
  00099	48 89 48 18	 mov	 QWORD PTR [rax+24], rcx
$LN1@simple_has:
; Line 149
  0009d	48 8b 44 24 28	 mov	 rax, QWORD PTR pItem$[rsp]
  000a2	48 8b 10	 mov	 rdx, QWORD PTR [rax]
  000a5	48 8b 4c 24 50	 mov	 rcx, QWORD PTR pState$[rsp]
  000aa	e8 00 00 00 00	 call	 simple_state_free
; Line 150
  000af	48 8b 54 24 28	 mov	 rdx, QWORD PTR pItem$[rsp]
  000b4	48 8b 4c 24 50	 mov	 rcx, QWORD PTR pState$[rsp]
  000b9	e8 00 00 00 00	 call	 simple_state_free
; Line 151
  000be	eb 1d		 jmp	 SHORT $LN6@simple_has
$LN3@simple_has:
; Line 153
  000c0	48 8b 44 24 28	 mov	 rax, QWORD PTR pItem$[rsp]
  000c5	48 89 44 24 30	 mov	 QWORD PTR pPrevItem$[rsp], rax
; Line 154
  000ca	48 8b 44 24 28	 mov	 rax, QWORD PTR pItem$[rsp]
  000cf	48 8b 40 18	 mov	 rax, QWORD PTR [rax+24]
  000d3	48 89 44 24 28	 mov	 QWORD PTR pItem$[rsp], rax
; Line 155
  000d8	e9 68 ff ff ff	 jmp	 $LN5@simple_has
$LN4@simple_has:
$LN6@simple_has:
; Line 156
  000dd	48 83 c4 48	 add	 rsp, 72			; 00000048H
  000e1	c3		 ret	 0
simple_hashtable_deleteitem_gc ENDP
_TEXT	ENDS
; Function compile flags: /Odtp
_TEXT	SEGMENT
pItem$ = 32
pHashTable$ = 64
cKey$ = 72
simple_hashtable_findpointer PROC
; File c:\users\thecarisma\documents\simple_github\simple\simple\sources\simple_hashtable.c
; Line 124
$LN4:
  00000	48 89 54 24 10	 mov	 QWORD PTR [rsp+16], rdx
  00005	48 89 4c 24 08	 mov	 QWORD PTR [rsp+8], rcx
  0000a	48 83 ec 38	 sub	 rsp, 56			; 00000038H
; Line 126
  0000e	48 8b 54 24 48	 mov	 rdx, QWORD PTR cKey$[rsp]
  00013	48 8b 4c 24 40	 mov	 rcx, QWORD PTR pHashTable$[rsp]
  00018	e8 00 00 00 00	 call	 simple_hashtable_finditem
  0001d	48 89 44 24 20	 mov	 QWORD PTR pItem$[rsp], rax
; Line 127
  00022	48 83 7c 24 20
	00		 cmp	 QWORD PTR pItem$[rsp], 0
  00028	74 0b		 je	 SHORT $LN1@simple_has
; Line 128
  0002a	48 8b 44 24 20	 mov	 rax, QWORD PTR pItem$[rsp]
  0002f	48 8b 40 10	 mov	 rax, QWORD PTR [rax+16]
  00033	eb 02		 jmp	 SHORT $LN2@simple_has
$LN1@simple_has:
; Line 130
  00035	33 c0		 xor	 eax, eax
$LN2@simple_has:
; Line 131
  00037	48 83 c4 38	 add	 rsp, 56			; 00000038H
  0003b	c3		 ret	 0
simple_hashtable_findpointer ENDP
_TEXT	ENDS
; Function compile flags: /Odtp
_TEXT	SEGMENT
pItem$ = 32
pHashTable$ = 64
cKey$ = 72
simple_hashtable_findnumber PROC
; File c:\users\thecarisma\documents\simple_github\simple\simple\sources\simple_hashtable.c
; Line 114
$LN4:
  00000	48 89 54 24 10	 mov	 QWORD PTR [rsp+16], rdx
  00005	48 89 4c 24 08	 mov	 QWORD PTR [rsp+8], rcx
  0000a	48 83 ec 38	 sub	 rsp, 56			; 00000038H
; Line 116
  0000e	48 8b 54 24 48	 mov	 rdx, QWORD PTR cKey$[rsp]
  00013	48 8b 4c 24 40	 mov	 rcx, QWORD PTR pHashTable$[rsp]
  00018	e8 00 00 00 00	 call	 simple_hashtable_finditem
  0001d	48 89 44 24 20	 mov	 QWORD PTR pItem$[rsp], rax
; Line 117
  00022	48 83 7c 24 20
	00		 cmp	 QWORD PTR pItem$[rsp], 0
  00028	74 0a		 je	 SHORT $LN1@simple_has
; Line 118
  0002a	48 8b 44 24 20	 mov	 rax, QWORD PTR pItem$[rsp]
  0002f	8b 40 10	 mov	 eax, DWORD PTR [rax+16]
  00032	eb 02		 jmp	 SHORT $LN2@simple_has
$LN1@simple_has:
; Line 120
  00034	33 c0		 xor	 eax, eax
$LN2@simple_has:
; Line 121
  00036	48 83 c4 38	 add	 rsp, 56			; 00000038H
  0003a	c3		 ret	 0
simple_hashtable_findnumber ENDP
_TEXT	ENDS
; Function compile flags: /Odtp
_TEXT	SEGMENT
nIndex$ = 32
pItem$ = 40
pHashTable$ = 64
cKey$ = 72
simple_hashtable_finditem PROC
; File c:\users\thecarisma\documents\simple_github\simple\simple\sources\simple_hashtable.c
; Line 98
$LN6:
  00000	48 89 54 24 10	 mov	 QWORD PTR [rsp+16], rdx
  00005	48 89 4c 24 08	 mov	 QWORD PTR [rsp+8], rcx
  0000a	48 83 ec 38	 sub	 rsp, 56			; 00000038H
; Line 101
  0000e	48 8b 54 24 48	 mov	 rdx, QWORD PTR cKey$[rsp]
  00013	48 8b 4c 24 40	 mov	 rcx, QWORD PTR pHashTable$[rsp]
  00018	e8 00 00 00 00	 call	 simple_hashtable_hashkey
  0001d	89 44 24 20	 mov	 DWORD PTR nIndex$[rsp], eax
; Line 102
  00021	48 63 44 24 20	 movsxd	 rax, DWORD PTR nIndex$[rsp]
  00026	48 8b 4c 24 40	 mov	 rcx, QWORD PTR pHashTable$[rsp]
  0002b	48 8b 09	 mov	 rcx, QWORD PTR [rcx]
  0002e	48 8b 04 c1	 mov	 rax, QWORD PTR [rcx+rax*8]
  00032	48 89 44 24 28	 mov	 QWORD PTR pItem$[rsp], rax
$LN3@simple_has:
; Line 103
  00037	48 83 7c 24 28
	00		 cmp	 QWORD PTR pItem$[rsp], 0
  0003d	74 2d		 je	 SHORT $LN2@simple_has
; Line 105
  0003f	48 8b 54 24 48	 mov	 rdx, QWORD PTR cKey$[rsp]
  00044	48 8b 44 24 28	 mov	 rax, QWORD PTR pItem$[rsp]
  00049	48 8b 08	 mov	 rcx, QWORD PTR [rax]
  0004c	e8 00 00 00 00	 call	 strcmp
  00051	85 c0		 test	 eax, eax
  00053	75 07		 jne	 SHORT $LN1@simple_has
; Line 106
  00055	48 8b 44 24 28	 mov	 rax, QWORD PTR pItem$[rsp]
  0005a	eb 12		 jmp	 SHORT $LN4@simple_has
$LN1@simple_has:
; Line 108
  0005c	48 8b 44 24 28	 mov	 rax, QWORD PTR pItem$[rsp]
  00061	48 8b 40 18	 mov	 rax, QWORD PTR [rax+24]
  00065	48 89 44 24 28	 mov	 QWORD PTR pItem$[rsp], rax
; Line 109
  0006a	eb cb		 jmp	 SHORT $LN3@simple_has
$LN2@simple_has:
; Line 110
  0006c	33 c0		 xor	 eax, eax
$LN4@simple_has:
; Line 111
  0006e	48 83 c4 38	 add	 rsp, 56			; 00000038H
  00072	c3		 ret	 0
simple_hashtable_finditem ENDP
_TEXT	ENDS
; Function compile flags: /Odtp
_TEXT	SEGMENT
pItem$ = 32
pState$ = 64
pHashTable$ = 72
cKey$ = 80
x$ = 88
simple_hashtable_newpointer_gc PROC
; File c:\users\thecarisma\documents\simple_github\simple\simple\sources\simple_hashtable.c
; Line 88
$LN3:
  00000	4c 89 4c 24 20	 mov	 QWORD PTR [rsp+32], r9
  00005	4c 89 44 24 18	 mov	 QWORD PTR [rsp+24], r8
  0000a	48 89 54 24 10	 mov	 QWORD PTR [rsp+16], rdx
  0000f	48 89 4c 24 08	 mov	 QWORD PTR [rsp+8], rcx
  00014	48 83 ec 38	 sub	 rsp, 56			; 00000038H
; Line 90
  00018	4c 8b 44 24 50	 mov	 r8, QWORD PTR cKey$[rsp]
  0001d	48 8b 54 24 48	 mov	 rdx, QWORD PTR pHashTable$[rsp]
  00022	48 8b 4c 24 40	 mov	 rcx, QWORD PTR pState$[rsp]
  00027	e8 00 00 00 00	 call	 simple_hashtable_newitem_gc
  0002c	48 89 44 24 20	 mov	 QWORD PTR pItem$[rsp], rax
; Line 91
  00031	48 8b 44 24 20	 mov	 rax, QWORD PTR pItem$[rsp]
  00036	c6 40 08 02	 mov	 BYTE PTR [rax+8], 2
; Line 92
  0003a	48 8b 44 24 20	 mov	 rax, QWORD PTR pItem$[rsp]
  0003f	48 8b 4c 24 58	 mov	 rcx, QWORD PTR x$[rsp]
  00044	48 89 48 10	 mov	 QWORD PTR [rax+16], rcx
; Line 94
  00048	48 8b 54 24 48	 mov	 rdx, QWORD PTR pHashTable$[rsp]
  0004d	48 8b 4c 24 40	 mov	 rcx, QWORD PTR pState$[rsp]
  00052	e8 00 00 00 00	 call	 simple_hashtable_rebuild_gc
; Line 95
  00057	48 83 c4 38	 add	 rsp, 56			; 00000038H
  0005b	c3		 ret	 0
simple_hashtable_newpointer_gc ENDP
_TEXT	ENDS
; Function compile flags: /Odtp
_TEXT	SEGMENT
pItem$ = 32
pState$ = 64
pHashTable$ = 72
cKey$ = 80
x$ = 88
simple_hashtable_newnumber_gc PROC
; File c:\users\thecarisma\documents\simple_github\simple\simple\sources\simple_hashtable.c
; Line 78
$LN3:
  00000	44 89 4c 24 20	 mov	 DWORD PTR [rsp+32], r9d
  00005	4c 89 44 24 18	 mov	 QWORD PTR [rsp+24], r8
  0000a	48 89 54 24 10	 mov	 QWORD PTR [rsp+16], rdx
  0000f	48 89 4c 24 08	 mov	 QWORD PTR [rsp+8], rcx
  00014	48 83 ec 38	 sub	 rsp, 56			; 00000038H
; Line 80
  00018	4c 8b 44 24 50	 mov	 r8, QWORD PTR cKey$[rsp]
  0001d	48 8b 54 24 48	 mov	 rdx, QWORD PTR pHashTable$[rsp]
  00022	48 8b 4c 24 40	 mov	 rcx, QWORD PTR pState$[rsp]
  00027	e8 00 00 00 00	 call	 simple_hashtable_newitem_gc
  0002c	48 89 44 24 20	 mov	 QWORD PTR pItem$[rsp], rax
; Line 81
  00031	48 8b 44 24 20	 mov	 rax, QWORD PTR pItem$[rsp]
  00036	c6 40 08 01	 mov	 BYTE PTR [rax+8], 1
; Line 82
  0003a	48 8b 44 24 20	 mov	 rax, QWORD PTR pItem$[rsp]
  0003f	8b 4c 24 58	 mov	 ecx, DWORD PTR x$[rsp]
  00043	89 48 10	 mov	 DWORD PTR [rax+16], ecx
; Line 84
  00046	48 8b 54 24 48	 mov	 rdx, QWORD PTR pHashTable$[rsp]
  0004b	48 8b 4c 24 40	 mov	 rcx, QWORD PTR pState$[rsp]
  00050	e8 00 00 00 00	 call	 simple_hashtable_rebuild_gc
; Line 85
  00055	48 83 c4 38	 add	 rsp, 56			; 00000038H
  00059	c3		 ret	 0
simple_hashtable_newnumber_gc ENDP
_TEXT	ENDS
; Function compile flags: /Odtp
_TEXT	SEGMENT
nIndex$ = 32
pItem$ = 40
pState$ = 64
pHashTable$ = 72
cKey$ = 80
simple_hashtable_newitem_gc PROC
; File c:\users\thecarisma\documents\simple_github\simple\simple\sources\simple_hashtable.c
; Line 46
$LN8:
  00000	4c 89 44 24 18	 mov	 QWORD PTR [rsp+24], r8
  00005	48 89 54 24 10	 mov	 QWORD PTR [rsp+16], rdx
  0000a	48 89 4c 24 08	 mov	 QWORD PTR [rsp+8], rcx
  0000f	48 83 ec 38	 sub	 rsp, 56			; 00000038H
; Line 49
  00013	48 8b 54 24 50	 mov	 rdx, QWORD PTR cKey$[rsp]
  00018	48 8b 4c 24 48	 mov	 rcx, QWORD PTR pHashTable$[rsp]
  0001d	e8 00 00 00 00	 call	 simple_hashtable_hashkey
  00022	89 44 24 20	 mov	 DWORD PTR nIndex$[rsp], eax
; Line 50
  00026	8b 44 24 20	 mov	 eax, DWORD PTR nIndex$[rsp]
  0002a	48 8b 4c 24 48	 mov	 rcx, QWORD PTR pHashTable$[rsp]
  0002f	48 8b 09	 mov	 rcx, QWORD PTR [rcx]
  00032	48 83 3c c1 00	 cmp	 QWORD PTR [rcx+rax*8], 0
  00037	75 36		 jne	 SHORT $LN5@simple_has
; Line 51
  00039	ba 20 00 00 00	 mov	 edx, 32			; 00000020H
  0003e	48 8b 4c 24 40	 mov	 rcx, QWORD PTR pState$[rsp]
  00043	e8 00 00 00 00	 call	 simple_state_malloc
  00048	8b 4c 24 20	 mov	 ecx, DWORD PTR nIndex$[rsp]
  0004c	48 8b 54 24 48	 mov	 rdx, QWORD PTR pHashTable$[rsp]
  00051	48 8b 12	 mov	 rdx, QWORD PTR [rdx]
  00054	48 89 04 ca	 mov	 QWORD PTR [rdx+rcx*8], rax
; Line 52
  00058	8b 44 24 20	 mov	 eax, DWORD PTR nIndex$[rsp]
  0005c	48 8b 4c 24 48	 mov	 rcx, QWORD PTR pHashTable$[rsp]
  00061	48 8b 09	 mov	 rcx, QWORD PTR [rcx]
  00064	48 8b 04 c1	 mov	 rax, QWORD PTR [rcx+rax*8]
  00068	48 89 44 24 28	 mov	 QWORD PTR pItem$[rsp], rax
; Line 54
  0006d	eb 57		 jmp	 SHORT $LN4@simple_has
$LN5@simple_has:
; Line 55
  0006f	8b 44 24 20	 mov	 eax, DWORD PTR nIndex$[rsp]
  00073	48 8b 4c 24 48	 mov	 rcx, QWORD PTR pHashTable$[rsp]
  00078	48 8b 09	 mov	 rcx, QWORD PTR [rcx]
  0007b	48 8b 04 c1	 mov	 rax, QWORD PTR [rcx+rax*8]
  0007f	48 89 44 24 28	 mov	 QWORD PTR pItem$[rsp], rax
$LN3@simple_has:
; Line 57
  00084	48 8b 44 24 28	 mov	 rax, QWORD PTR pItem$[rsp]
  00089	48 83 78 18 00	 cmp	 QWORD PTR [rax+24], 0
  0008e	74 10		 je	 SHORT $LN2@simple_has
; Line 58
  00090	48 8b 44 24 28	 mov	 rax, QWORD PTR pItem$[rsp]
  00095	48 8b 40 18	 mov	 rax, QWORD PTR [rax+24]
  00099	48 89 44 24 28	 mov	 QWORD PTR pItem$[rsp], rax
; Line 59
  0009e	eb e4		 jmp	 SHORT $LN3@simple_has
$LN2@simple_has:
; Line 60
  000a0	ba 20 00 00 00	 mov	 edx, 32			; 00000020H
  000a5	48 8b 4c 24 40	 mov	 rcx, QWORD PTR pState$[rsp]
  000aa	e8 00 00 00 00	 call	 simple_state_malloc
  000af	48 8b 4c 24 28	 mov	 rcx, QWORD PTR pItem$[rsp]
  000b4	48 89 41 18	 mov	 QWORD PTR [rcx+24], rax
; Line 61
  000b8	48 8b 44 24 28	 mov	 rax, QWORD PTR pItem$[rsp]
  000bd	48 8b 40 18	 mov	 rax, QWORD PTR [rax+24]
  000c1	48 89 44 24 28	 mov	 QWORD PTR pItem$[rsp], rax
$LN4@simple_has:
; Line 63
  000c6	48 83 7c 24 28
	00		 cmp	 QWORD PTR pItem$[rsp], 0
  000cc	75 13		 jne	 SHORT $LN1@simple_has
; Line 64
  000ce	48 8d 0d 00 00
	00 00		 lea	 rcx, OFFSET FLAT:$SG82465
  000d5	e8 00 00 00 00	 call	 printf
; Line 65
  000da	33 c9		 xor	 ecx, ecx
  000dc	e8 00 00 00 00	 call	 exit
$LN1@simple_has:
; Line 68
  000e1	48 8b 4c 24 50	 mov	 rcx, QWORD PTR cKey$[rsp]
  000e6	e8 00 00 00 00	 call	 strdup
  000eb	48 8b 4c 24 28	 mov	 rcx, QWORD PTR pItem$[rsp]
  000f0	48 89 01	 mov	 QWORD PTR [rcx], rax
; Line 70
  000f3	48 8b 44 24 28	 mov	 rax, QWORD PTR pItem$[rsp]
  000f8	c6 40 08 00	 mov	 BYTE PTR [rax+8], 0
; Line 71
  000fc	48 8b 44 24 28	 mov	 rax, QWORD PTR pItem$[rsp]
  00101	48 c7 40 18 00
	00 00 00	 mov	 QWORD PTR [rax+24], 0
; Line 73
  00109	48 8b 44 24 48	 mov	 rax, QWORD PTR pHashTable$[rsp]
  0010e	8b 40 08	 mov	 eax, DWORD PTR [rax+8]
  00111	ff c0		 inc	 eax
  00113	48 8b 4c 24 48	 mov	 rcx, QWORD PTR pHashTable$[rsp]
  00118	89 41 08	 mov	 DWORD PTR [rcx+8], eax
; Line 74
  0011b	48 8b 44 24 28	 mov	 rax, QWORD PTR pItem$[rsp]
$LN7@simple_has:
; Line 75
  00120	48 83 c4 38	 add	 rsp, 56			; 00000038H
  00124	c3		 ret	 0
simple_hashtable_newitem_gc ENDP
_TEXT	ENDS
; Function compile flags: /Odtp
_TEXT	SEGMENT
nIndex$ = 32
pHashTable$ = 64
cKey$ = 72
simple_hashtable_hashkey PROC
; File c:\users\thecarisma\documents\simple_github\simple\simple\sources\simple_hashtable.c
; Line 38
$LN3:
  00000	48 89 54 24 10	 mov	 QWORD PTR [rsp+16], rdx
  00005	48 89 4c 24 08	 mov	 QWORD PTR [rsp+8], rcx
  0000a	48 83 ec 38	 sub	 rsp, 56			; 00000038H
; Line 40
  0000e	48 8b 4c 24 48	 mov	 rcx, QWORD PTR cKey$[rsp]
  00013	e8 00 00 00 00	 call	 strlen
  00018	45 33 c0	 xor	 r8d, r8d
  0001b	8b d0		 mov	 edx, eax
  0001d	48 8b 4c 24 48	 mov	 rcx, QWORD PTR cKey$[rsp]
  00022	e8 00 00 00 00	 call	 simple_murmur3_32
  00027	89 44 24 20	 mov	 DWORD PTR nIndex$[rsp], eax
; Line 41
  0002b	33 d2		 xor	 edx, edx
  0002d	8b 44 24 20	 mov	 eax, DWORD PTR nIndex$[rsp]
  00031	48 8b 4c 24 40	 mov	 rcx, QWORD PTR pHashTable$[rsp]
  00036	f7 71 0c	 div	 DWORD PTR [rcx+12]
  00039	8b c2		 mov	 eax, edx
  0003b	89 44 24 20	 mov	 DWORD PTR nIndex$[rsp], eax
; Line 42
  0003f	8b 44 24 20	 mov	 eax, DWORD PTR nIndex$[rsp]
; Line 43
  00043	48 83 c4 38	 add	 rsp, 56			; 00000038H
  00047	c3		 ret	 0
simple_hashtable_hashkey ENDP
_TEXT	ENDS
; Function compile flags: /Odtp
_TEXT	SEGMENT
pHashTable$ = 32
pState$ = 64
simple_hashtable_new_gc PROC
; File c:\users\thecarisma\documents\simple_github\simple\simple\sources\simple_hashtable.c
; Line 19
$LN5:
  00000	48 89 4c 24 08	 mov	 QWORD PTR [rsp+8], rcx
  00005	48 83 ec 38	 sub	 rsp, 56			; 00000038H
; Line 21
  00009	ba 18 00 00 00	 mov	 edx, 24
  0000e	48 8b 4c 24 40	 mov	 rcx, QWORD PTR pState$[rsp]
  00013	e8 00 00 00 00	 call	 simple_state_malloc
  00018	48 89 44 24 20	 mov	 QWORD PTR pHashTable$[rsp], rax
; Line 22
  0001d	48 83 7c 24 20
	00		 cmp	 QWORD PTR pHashTable$[rsp], 0
  00023	75 13		 jne	 SHORT $LN2@simple_has
; Line 23
  00025	48 8d 0d 00 00
	00 00		 lea	 rcx, OFFSET FLAT:$SG82431
  0002c	e8 00 00 00 00	 call	 printf
; Line 24
  00031	33 c9		 xor	 ecx, ecx
  00033	e8 00 00 00 00	 call	 exit
$LN2@simple_has:
; Line 26
  00038	48 8b 44 24 20	 mov	 rax, QWORD PTR pHashTable$[rsp]
  0003d	c7 40 08 00 00
	00 00		 mov	 DWORD PTR [rax+8], 0
; Line 27
  00044	48 8b 44 24 20	 mov	 rax, QWORD PTR pHashTable$[rsp]
  00049	c7 40 0c 0a 00
	00 00		 mov	 DWORD PTR [rax+12], 10
; Line 28
  00050	48 8b 44 24 20	 mov	 rax, QWORD PTR pHashTable$[rsp]
  00055	c7 40 10 07 00
	00 00		 mov	 DWORD PTR [rax+16], 7
; Line 29
  0005c	48 8b 44 24 20	 mov	 rax, QWORD PTR pHashTable$[rsp]
  00061	48 63 40 0c	 movsxd	 rax, DWORD PTR [rax+12]
  00065	41 b8 08 00 00
	00		 mov	 r8d, 8
  0006b	48 8b d0	 mov	 rdx, rax
  0006e	48 8b 4c 24 40	 mov	 rcx, QWORD PTR pState$[rsp]
  00073	e8 00 00 00 00	 call	 simple_state_calloc
  00078	48 8b 4c 24 20	 mov	 rcx, QWORD PTR pHashTable$[rsp]
  0007d	48 89 01	 mov	 QWORD PTR [rcx], rax
; Line 30
  00080	48 8b 44 24 20	 mov	 rax, QWORD PTR pHashTable$[rsp]
  00085	48 83 38 00	 cmp	 QWORD PTR [rax], 0
  00089	75 13		 jne	 SHORT $LN1@simple_has
; Line 31
  0008b	48 8d 0d 00 00
	00 00		 lea	 rcx, OFFSET FLAT:$SG82436
  00092	e8 00 00 00 00	 call	 printf
; Line 32
  00097	33 c9		 xor	 ecx, ecx
  00099	e8 00 00 00 00	 call	 exit
$LN1@simple_has:
; Line 34
  0009e	48 8b 44 24 20	 mov	 rax, QWORD PTR pHashTable$[rsp]
$LN4@simple_has:
; Line 35
  000a3	48 83 c4 38	 add	 rsp, 56			; 00000038H
  000a7	c3		 ret	 0
simple_hashtable_new_gc ENDP
_TEXT	ENDS
END
