; Listing generated by Microsoft (R) Optimizing Compiler Version 17.00.50727.1 

include listing.inc

INCLUDELIB LIBCMT
INCLUDELIB OLDNAMES

_DATA	SEGMENT
$SG82528 DB	'RUNTIME ERROR 24 : Sorry, The command is not supported i'
	DB	'n this context', 00H
	ORG $+9
$SG82547 DB	'RUNTIME ERROR 24 : Sorry, The command is not supported i'
	DB	'n this context', 00H
	ORG $+9
$SG82552 DB	'RUNTIME ERROR 24 : Using loop command with number outsid'
	DB	'e the range ', 00H
	ORG $+11
$SG82560 DB	'RUNTIME ERROR 24 : Using exit command with number outsid'
	DB	'e the range ', 00H
	ORG $+11
$SG82562 DB	'RUNTIME ERROR 24 : Using loop command with number outsid'
	DB	'e the range ', 00H
	ORG $+3
$SG82565 DB	'RUNTIME ERROR 24 : Using exit command outside loop ', 00H
	ORG $+4
$SG82567 DB	'RUNTIME ERROR 24 : Using loop command outside loops ', 00H
	ORG $+3
$SG82576 DB	'RUNTIME ERROR 24 : The step value is not valid', 00H
	ORG $+1
$SG82633 DB	'n_sys_var_%d', 00H
_DATA	ENDS
PUBLIC	simple_vm_dup
PUBLIC	simple_vm_range
PUBLIC	simple_vm_range_newlist
PUBLIC	exit_simple_vm
PUBLIC	simple_vm_exitmark
PUBLIC	simple_vm_popexitmark
PUBLIC	simple_vm_exit
PUBLIC	simple_vm_savestate
PUBLIC	simple_vm_restorestate
PUBLIC	simple_vm_backstate
PUBLIC	simple_vm_savestate2
PUBLIC	simple_vm_restorestate2
PUBLIC	simple_vm_savestack
PUBLIC	simple_vm_restorestack
PUBLIC	simple_vm_stepnumber
PUBLIC	simple_vm_popstep
EXTRN	__report_rangecheckfailure:PROC
EXTRN	puts:PROC
EXTRN	sprintf:PROC
EXTRN	simple_string_new_gc:PROC
EXTRN	simple_string_delete_gc:PROC
EXTRN	simple_string_size:PROC
EXTRN	simple_itemarray_setpointer:PROC
EXTRN	simple_itemarray_setdouble:PROC
EXTRN	simple_itemarray_setstring:PROC
EXTRN	simple_list_new_gc:PROC
EXTRN	simple_list_getitem:PROC
EXTRN	simple_list_delete_gc:PROC
EXTRN	simple_list_deleteitem_gc:PROC
EXTRN	simple_list_setint_gc:PROC
EXTRN	simple_list_addint_gc:PROC
EXTRN	simple_list_setpointer_gc:PROC
EXTRN	simple_list_addpointer_gc:PROC
EXTRN	simple_list_adddouble_gc:PROC
EXTRN	simple_list_addstring_gc:PROC
EXTRN	simple_list_newlist_gc:PROC
EXTRN	simple_list_setlist_gc:PROC
EXTRN	simple_list_getlist:PROC
EXTRN	simple_list_isnumber:PROC
EXTRN	simple_list_isstring:PROC
EXTRN	simple_list_islist:PROC
EXTRN	simple_list_deleteallitems_gc:PROC
EXTRN	simple_vm_error:PROC
EXTRN	simple_vm_stringtonum:PROC
EXTRN	simple_vm_findvar:PROC
EXTRN	simple_vm_newvar:PROC
EXTRN	simple_vm_deletescope:PROC
EXTRN	simple_vm_oop_updateselfpointer2:PROC
EXTRN	simple_vm_getglobalscope:PROC
EXTRN	__GSHandlerCheck:PROC
EXTRN	__security_check_cookie:PROC
EXTRN	__security_cookie:QWORD
EXTRN	_fltused:DWORD
pdata	SEGMENT
$pdata$simple_vm_dup DD imagerel $LN8
	DD	imagerel $LN8+546
	DD	imagerel $unwind$simple_vm_dup
$pdata$simple_vm_range DD imagerel $LN28
	DD	imagerel $LN28+987
	DD	imagerel $unwind$simple_vm_range
$pdata$simple_vm_range_newlist DD imagerel $LN4
	DD	imagerel $LN4+278
	DD	imagerel $unwind$simple_vm_range_newlist
$pdata$exit_simple_vm DD imagerel $LN4
	DD	imagerel $LN4+66
	DD	imagerel $unwind$exit_simple_vm
$pdata$simple_vm_exitmark DD imagerel $LN3
	DD	imagerel $LN3+214
	DD	imagerel $unwind$simple_vm_exitmark
$pdata$simple_vm_popexitmark DD imagerel $LN3
	DD	imagerel $LN3+104
	DD	imagerel $unwind$simple_vm_popexitmark
$pdata$simple_vm_exit DD imagerel $LN19
	DD	imagerel $LN19+507
	DD	imagerel $unwind$simple_vm_exit
$pdata$simple_vm_savestate DD imagerel $LN3
	DD	imagerel $LN3+1565
	DD	imagerel $unwind$simple_vm_savestate
$pdata$simple_vm_restorestate DD imagerel $LN11
	DD	imagerel $LN11+1753
	DD	imagerel $unwind$simple_vm_restorestate
$pdata$simple_vm_backstate DD imagerel $LN7
	DD	imagerel $LN7+114
	DD	imagerel $unwind$simple_vm_backstate
$pdata$simple_vm_savestate2 DD imagerel $LN3
	DD	imagerel $LN3+1297
	DD	imagerel $unwind$simple_vm_savestate2
$pdata$simple_vm_restorestate2 DD imagerel $LN4
	DD	imagerel $LN4+1342
	DD	imagerel $unwind$simple_vm_restorestate2
$pdata$simple_vm_savestack DD imagerel $LN10
	DD	imagerel $LN10+469
	DD	imagerel $unwind$simple_vm_savestack
$pdata$simple_vm_restorestack DD imagerel $LN12
	DD	imagerel $LN12+512
	DD	imagerel $unwind$simple_vm_restorestack
$pdata$simple_vm_stepnumber DD imagerel $LN7
	DD	imagerel $LN7+290
	DD	imagerel $unwind$simple_vm_stepnumber
$pdata$simple_vm_popstep DD imagerel $LN3
	DD	imagerel $LN3+59
	DD	imagerel $unwind$simple_vm_popstep
pdata	ENDS
xdata	SEGMENT
$unwind$simple_vm_dup DD 010901H
	DD	08209H
$unwind$simple_vm_range DD 010901H
	DD	0c209H
$unwind$simple_vm_range_newlist DD 011819H
	DD	0e209H
	DD	imagerel __GSHandlerCheck
	DD	060H
$unwind$exit_simple_vm DD 010901H
	DD	04209H
$unwind$simple_vm_exitmark DD 010901H
	DD	06209H
$unwind$simple_vm_popexitmark DD 010901H
	DD	04209H
$unwind$simple_vm_exit DD 010d01H
	DD	0820dH
$unwind$simple_vm_savestate DD 010e01H
	DD	0620eH
$unwind$simple_vm_restorestate DD 011801H
	DD	06218H
$unwind$simple_vm_backstate DD 011201H
	DD	06212H
$unwind$simple_vm_savestate2 DD 010e01H
	DD	0620eH
$unwind$simple_vm_restorestate2 DD 011301H
	DD	06213H
$unwind$simple_vm_savestack DD 010901H
	DD	08209H
$unwind$simple_vm_restorestack DD 010e01H
	DD	0a20eH
$unwind$simple_vm_stepnumber DD 010901H
	DD	06209H
$unwind$simple_vm_popstep DD 010901H
	DD	04209H
xdata	ENDS
; Function compile flags: /Odtp
_TEXT	SEGMENT
vm$ = 48
simple_vm_popstep PROC
; File c:\users\thecarisma\documents\simple_github\simple\simple\sources\simple_vmstate.c
; Line 416
$LN3:
  00000	48 89 4c 24 08	 mov	 QWORD PTR [rsp+8], rcx
  00005	48 83 ec 28	 sub	 rsp, 40			; 00000028H
; Line 417
  00009	48 8b 44 24 30	 mov	 rax, QWORD PTR vm$[rsp]
  0000e	48 8b 80 40 19
	00 00		 mov	 rax, QWORD PTR [rax+6464]
  00015	44 8b 40 10	 mov	 r8d, DWORD PTR [rax+16]
  00019	48 8b 44 24 30	 mov	 rax, QWORD PTR vm$[rsp]
  0001e	48 8b 90 40 19
	00 00		 mov	 rdx, QWORD PTR [rax+6464]
  00025	48 8b 44 24 30	 mov	 rax, QWORD PTR vm$[rsp]
  0002a	48 8b 88 50 19
	00 00		 mov	 rcx, QWORD PTR [rax+6480]
  00031	e8 00 00 00 00	 call	 simple_list_deleteitem_gc
; Line 418
  00036	48 83 c4 28	 add	 rsp, 40			; 00000028H
  0003a	c3		 ret	 0
simple_vm_popstep ENDP
_TEXT	ENDS
; Function compile flags: /Odtp
_TEXT	SEGMENT
nNum1$ = 32
vm$ = 64
simple_vm_stepnumber PROC
; File c:\users\thecarisma\documents\simple_github\simple\simple\sources\simple_vmstate.c
; Line 400
$LN7:
  00000	48 89 4c 24 08	 mov	 QWORD PTR [rsp+8], rcx
  00005	48 83 ec 38	 sub	 rsp, 56			; 00000038H
; Line 402
  00009	48 8b 44 24 40	 mov	 rax, QWORD PTR vm$[rsp]
  0000e	0f b6 80 30 18
	00 00		 movzx	 eax, BYTE PTR [rax+6192]
  00015	48 6b c0 18	 imul	 rax, 24
  00019	48 8b 4c 24 40	 mov	 rcx, QWORD PTR vm$[rsp]
  0001e	8b 44 01 30	 mov	 eax, DWORD PTR [rcx+rax+48]
  00022	83 e0 07	 and	 eax, 7
  00025	83 f8 02	 cmp	 eax, 2
  00028	75 56		 jne	 SHORT $LN4@simple_vm_
; Line 403
  0002a	48 8b 44 24 40	 mov	 rax, QWORD PTR vm$[rsp]
  0002f	0f b6 80 30 18
	00 00		 movzx	 eax, BYTE PTR [rax+6192]
  00036	48 6b c0 18	 imul	 rax, 24
  0003a	48 8b 4c 24 40	 mov	 rcx, QWORD PTR vm$[rsp]
  0003f	f2 0f 10 54 01
	38		 movsdx	 xmm2, QWORD PTR [rcx+rax+56]
  00045	48 8b 44 24 40	 mov	 rax, QWORD PTR vm$[rsp]
  0004a	48 8b 90 40 19
	00 00		 mov	 rdx, QWORD PTR [rax+6464]
  00051	48 8b 44 24 40	 mov	 rax, QWORD PTR vm$[rsp]
  00056	48 8b 88 50 19
	00 00		 mov	 rcx, QWORD PTR [rax+6480]
  0005d	e8 00 00 00 00	 call	 simple_list_adddouble_gc
; Line 404
  00062	48 8b 44 24 40	 mov	 rax, QWORD PTR vm$[rsp]
  00067	0f b6 80 30 18
	00 00		 movzx	 eax, BYTE PTR [rax+6192]
  0006e	fe c8		 dec	 al
  00070	48 8b 4c 24 40	 mov	 rcx, QWORD PTR vm$[rsp]
  00075	88 81 30 18 00
	00		 mov	 BYTE PTR [rcx+6192], al
  0007b	e9 9d 00 00 00	 jmp	 $LN3@simple_vm_
$LN4@simple_vm_:
; Line 406
  00080	48 8b 44 24 40	 mov	 rax, QWORD PTR vm$[rsp]
  00085	0f b6 80 30 18
	00 00		 movzx	 eax, BYTE PTR [rax+6192]
  0008c	48 6b c0 18	 imul	 rax, 24
  00090	48 8b 4c 24 40	 mov	 rcx, QWORD PTR vm$[rsp]
  00095	8b 44 01 30	 mov	 eax, DWORD PTR [rcx+rax+48]
  00099	83 e0 07	 and	 eax, 7
  0009c	83 f8 01	 cmp	 eax, 1
  0009f	75 6b		 jne	 SHORT $LN2@simple_vm_
; Line 407
  000a1	48 8b 44 24 40	 mov	 rax, QWORD PTR vm$[rsp]
  000a6	0f b6 80 30 18
	00 00		 movzx	 eax, BYTE PTR [rax+6192]
  000ad	48 6b c0 18	 imul	 rax, 24
  000b1	48 8b 4c 24 40	 mov	 rcx, QWORD PTR vm$[rsp]
  000b6	48 8b 44 01 38	 mov	 rax, QWORD PTR [rcx+rax+56]
  000bb	48 8b 10	 mov	 rdx, QWORD PTR [rax]
  000be	48 8b 4c 24 40	 mov	 rcx, QWORD PTR vm$[rsp]
  000c3	e8 00 00 00 00	 call	 simple_vm_stringtonum
  000c8	f2 0f 11 44 24
	20		 movsdx	 QWORD PTR nNum1$[rsp], xmm0
; Line 408
  000ce	f2 0f 10 54 24
	20		 movsdx	 xmm2, QWORD PTR nNum1$[rsp]
  000d4	48 8b 44 24 40	 mov	 rax, QWORD PTR vm$[rsp]
  000d9	48 8b 90 40 19
	00 00		 mov	 rdx, QWORD PTR [rax+6464]
  000e0	48 8b 44 24 40	 mov	 rax, QWORD PTR vm$[rsp]
  000e5	48 8b 88 50 19
	00 00		 mov	 rcx, QWORD PTR [rax+6480]
  000ec	e8 00 00 00 00	 call	 simple_list_adddouble_gc
; Line 409
  000f1	48 8b 44 24 40	 mov	 rax, QWORD PTR vm$[rsp]
  000f6	0f b6 80 30 18
	00 00		 movzx	 eax, BYTE PTR [rax+6192]
  000fd	fe c8		 dec	 al
  000ff	48 8b 4c 24 40	 mov	 rcx, QWORD PTR vm$[rsp]
  00104	88 81 30 18 00
	00		 mov	 BYTE PTR [rcx+6192], al
; Line 410
  0010a	eb 11		 jmp	 SHORT $LN1@simple_vm_
$LN2@simple_vm_:
; Line 411
  0010c	48 8d 15 00 00
	00 00		 lea	 rdx, OFFSET FLAT:$SG82576
  00113	48 8b 4c 24 40	 mov	 rcx, QWORD PTR vm$[rsp]
  00118	e8 00 00 00 00	 call	 simple_vm_error
$LN1@simple_vm_:
$LN3@simple_vm_:
; Line 413
  0011d	48 83 c4 38	 add	 rsp, 56			; 00000038H
  00121	c3		 ret	 0
simple_vm_stepnumber ENDP
_TEXT	ENDS
; Function compile flags: /Odtp
_TEXT	SEGMENT
x$ = 32
list2$ = 40
tv87 = 48
tv137 = 56
tv158 = 64
vm$ = 96
list$ = 104
simple_vm_restorestack PROC
; File c:\users\thecarisma\documents\simple_github\simple\simple\sources\simple_vmstate.c
; Line 290
$LN12:
  00000	48 89 54 24 10	 mov	 QWORD PTR [rsp+16], rdx
  00005	48 89 4c 24 08	 mov	 QWORD PTR [rsp+8], rcx
  0000a	48 83 ec 58	 sub	 rsp, 88			; 00000058H
; Line 293
  0000e	48 8b 44 24 60	 mov	 rax, QWORD PTR vm$[rsp]
  00013	c6 80 30 18 00
	00 00		 mov	 BYTE PTR [rax+6192], 0
; Line 294
  0001a	48 8b 44 24 68	 mov	 rax, QWORD PTR list$[rsp]
  0001f	83 78 10 00	 cmp	 DWORD PTR [rax+16], 0
  00023	75 05		 jne	 SHORT $LN9@simple_vm_
; Line 295
  00025	e9 d1 01 00 00	 jmp	 $LN10@simple_vm_
$LN9@simple_vm_:
; Line 297
  0002a	48 8b 44 24 68	 mov	 rax, QWORD PTR list$[rsp]
  0002f	8b 40 10	 mov	 eax, DWORD PTR [rax+16]
  00032	89 44 24 20	 mov	 DWORD PTR x$[rsp], eax
  00036	eb 0a		 jmp	 SHORT $LN8@simple_vm_
$LN7@simple_vm_:
  00038	8b 44 24 20	 mov	 eax, DWORD PTR x$[rsp]
  0003c	ff c8		 dec	 eax
  0003e	89 44 24 20	 mov	 DWORD PTR x$[rsp], eax
$LN8@simple_vm_:
  00042	83 7c 24 20 01	 cmp	 DWORD PTR x$[rsp], 1
  00047	0f 8c ae 01 00
	00		 jl	 $LN6@simple_vm_
; Line 298
  0004d	8b 54 24 20	 mov	 edx, DWORD PTR x$[rsp]
  00051	48 8b 4c 24 68	 mov	 rcx, QWORD PTR list$[rsp]
  00056	e8 00 00 00 00	 call	 simple_list_isstring
  0005b	85 c0		 test	 eax, eax
  0005d	74 5c		 je	 SHORT $LN5@simple_vm_
; Line 299
  0005f	48 8b 44 24 60	 mov	 rax, QWORD PTR vm$[rsp]
  00064	0f b6 80 30 18
	00 00		 movzx	 eax, BYTE PTR [rax+6192]
  0006b	fe c0		 inc	 al
  0006d	48 8b 4c 24 60	 mov	 rcx, QWORD PTR vm$[rsp]
  00072	88 81 30 18 00
	00		 mov	 BYTE PTR [rcx+6192], al
  00078	8b 54 24 20	 mov	 edx, DWORD PTR x$[rsp]
  0007c	48 8b 4c 24 68	 mov	 rcx, QWORD PTR list$[rsp]
  00081	e8 00 00 00 00	 call	 simple_list_getitem
  00086	48 8b 40 08	 mov	 rax, QWORD PTR [rax+8]
  0008a	48 8b 4c 24 60	 mov	 rcx, QWORD PTR vm$[rsp]
  0008f	0f b6 89 30 18
	00 00		 movzx	 ecx, BYTE PTR [rcx+6192]
  00096	48 8b 54 24 60	 mov	 rdx, QWORD PTR vm$[rsp]
  0009b	48 83 c2 30	 add	 rdx, 48			; 00000030H
  0009f	48 89 54 24 30	 mov	 QWORD PTR tv87[rsp], rdx
  000a4	4c 8b 00	 mov	 r8, QWORD PTR [rax]
  000a7	8b d1		 mov	 edx, ecx
  000a9	48 8b 44 24 30	 mov	 rax, QWORD PTR tv87[rsp]
  000ae	48 8b c8	 mov	 rcx, rax
  000b1	e8 00 00 00 00	 call	 simple_itemarray_setstring
  000b6	e9 3b 01 00 00	 jmp	 $LN4@simple_vm_
$LN5@simple_vm_:
; Line 301
  000bb	8b 54 24 20	 mov	 edx, DWORD PTR x$[rsp]
  000bf	48 8b 4c 24 68	 mov	 rcx, QWORD PTR list$[rsp]
  000c4	e8 00 00 00 00	 call	 simple_list_isnumber
  000c9	85 c0		 test	 eax, eax
  000cb	74 5a		 je	 SHORT $LN3@simple_vm_
; Line 302
  000cd	48 8b 44 24 60	 mov	 rax, QWORD PTR vm$[rsp]
  000d2	0f b6 80 30 18
	00 00		 movzx	 eax, BYTE PTR [rax+6192]
  000d9	fe c0		 inc	 al
  000db	48 8b 4c 24 60	 mov	 rcx, QWORD PTR vm$[rsp]
  000e0	88 81 30 18 00
	00		 mov	 BYTE PTR [rcx+6192], al
  000e6	8b 54 24 20	 mov	 edx, DWORD PTR x$[rsp]
  000ea	48 8b 4c 24 68	 mov	 rcx, QWORD PTR list$[rsp]
  000ef	e8 00 00 00 00	 call	 simple_list_getitem
  000f4	48 8b 4c 24 60	 mov	 rcx, QWORD PTR vm$[rsp]
  000f9	0f b6 89 30 18
	00 00		 movzx	 ecx, BYTE PTR [rcx+6192]
  00100	48 8b 54 24 60	 mov	 rdx, QWORD PTR vm$[rsp]
  00105	48 83 c2 30	 add	 rdx, 48			; 00000030H
  00109	48 89 54 24 38	 mov	 QWORD PTR tv137[rsp], rdx
  0010e	f2 0f 10 50 08	 movsdx	 xmm2, QWORD PTR [rax+8]
  00113	8b d1		 mov	 edx, ecx
  00115	48 8b 44 24 38	 mov	 rax, QWORD PTR tv137[rsp]
  0011a	48 8b c8	 mov	 rcx, rax
  0011d	e8 00 00 00 00	 call	 simple_itemarray_setdouble
  00122	e9 cf 00 00 00	 jmp	 $LN2@simple_vm_
$LN3@simple_vm_:
; Line 304
  00127	8b 54 24 20	 mov	 edx, DWORD PTR x$[rsp]
  0012b	48 8b 4c 24 68	 mov	 rcx, QWORD PTR list$[rsp]
  00130	e8 00 00 00 00	 call	 simple_list_islist
  00135	85 c0		 test	 eax, eax
  00137	0f 84 b9 00 00
	00		 je	 $LN1@simple_vm_
; Line 305
  0013d	8b 54 24 20	 mov	 edx, DWORD PTR x$[rsp]
  00141	48 8b 4c 24 68	 mov	 rcx, QWORD PTR list$[rsp]
  00146	e8 00 00 00 00	 call	 simple_list_getlist
  0014b	48 89 44 24 28	 mov	 QWORD PTR list2$[rsp], rax
; Line 306
  00150	48 8b 44 24 60	 mov	 rax, QWORD PTR vm$[rsp]
  00155	0f b6 80 30 18
	00 00		 movzx	 eax, BYTE PTR [rax+6192]
  0015c	fe c0		 inc	 al
  0015e	48 8b 4c 24 60	 mov	 rcx, QWORD PTR vm$[rsp]
  00163	88 81 30 18 00
	00		 mov	 BYTE PTR [rcx+6192], al
  00169	ba 01 00 00 00	 mov	 edx, 1
  0016e	48 8b 4c 24 28	 mov	 rcx, QWORD PTR list2$[rsp]
  00173	e8 00 00 00 00	 call	 simple_list_getitem
  00178	48 8b 4c 24 60	 mov	 rcx, QWORD PTR vm$[rsp]
  0017d	0f b6 89 30 18
	00 00		 movzx	 ecx, BYTE PTR [rcx+6192]
  00184	48 8b 54 24 60	 mov	 rdx, QWORD PTR vm$[rsp]
  00189	48 83 c2 30	 add	 rdx, 48			; 00000030H
  0018d	48 89 54 24 40	 mov	 QWORD PTR tv158[rsp], rdx
  00192	4c 8b 40 08	 mov	 r8, QWORD PTR [rax+8]
  00196	8b d1		 mov	 edx, ecx
  00198	48 8b 44 24 40	 mov	 rax, QWORD PTR tv158[rsp]
  0019d	48 8b c8	 mov	 rcx, rax
  001a0	e8 00 00 00 00	 call	 simple_itemarray_setpointer
; Line 307
  001a5	ba 02 00 00 00	 mov	 edx, 2
  001aa	48 8b 4c 24 28	 mov	 rcx, QWORD PTR list2$[rsp]
  001af	e8 00 00 00 00	 call	 simple_list_getitem
  001b4	48 8b 4c 24 60	 mov	 rcx, QWORD PTR vm$[rsp]
  001b9	0f b6 89 30 18
	00 00		 movzx	 ecx, BYTE PTR [rcx+6192]
  001c0	48 6b c9 18	 imul	 rcx, 24
  001c4	8b 40 08	 mov	 eax, DWORD PTR [rax+8]
  001c7	83 e0 03	 and	 eax, 3
  001ca	c1 e0 05	 shl	 eax, 5
  001cd	48 8b 54 24 60	 mov	 rdx, QWORD PTR vm$[rsp]
  001d2	8b 4c 0a 30	 mov	 ecx, DWORD PTR [rdx+rcx+48]
  001d6	83 e1 9f	 and	 ecx, -97		; ffffff9fH
  001d9	0b c8		 or	 ecx, eax
  001db	8b c1		 mov	 eax, ecx
  001dd	48 8b 4c 24 60	 mov	 rcx, QWORD PTR vm$[rsp]
  001e2	0f b6 89 30 18
	00 00		 movzx	 ecx, BYTE PTR [rcx+6192]
  001e9	48 6b c9 18	 imul	 rcx, 24
  001ed	48 8b 54 24 60	 mov	 rdx, QWORD PTR vm$[rsp]
  001f2	89 44 0a 30	 mov	 DWORD PTR [rdx+rcx+48], eax
$LN1@simple_vm_:
$LN2@simple_vm_:
$LN4@simple_vm_:
; Line 309
  001f6	e9 3d fe ff ff	 jmp	 $LN7@simple_vm_
$LN6@simple_vm_:
$LN10@simple_vm_:
; Line 310
  001fb	48 83 c4 58	 add	 rsp, 88			; 00000058H
  001ff	c3		 ret	 0
simple_vm_restorestack ENDP
_TEXT	ENDS
; Function compile flags: /Odtp
_TEXT	SEGMENT
nsp$ = 32
list$ = 40
list2$ = 48
vm$ = 80
simple_vm_savestack PROC
; File c:\users\thecarisma\documents\simple_github\simple\simple\sources\simple_vmstate.c
; Line 265
$LN10:
  00000	48 89 4c 24 08	 mov	 QWORD PTR [rsp+8], rcx
  00005	48 83 ec 48	 sub	 rsp, 72			; 00000048H
; Line 268
  00009	48 8b 44 24 50	 mov	 rax, QWORD PTR vm$[rsp]
  0000e	0f b6 80 30 18
	00 00		 movzx	 eax, BYTE PTR [rax+6192]
  00015	89 44 24 20	 mov	 DWORD PTR nsp$[rsp], eax
; Line 270
  00019	33 d2		 xor	 edx, edx
  0001b	48 8b 44 24 50	 mov	 rax, QWORD PTR vm$[rsp]
  00020	48 8b 88 50 19
	00 00		 mov	 rcx, QWORD PTR [rax+6480]
  00027	e8 00 00 00 00	 call	 simple_list_new_gc
  0002c	48 89 44 24 28	 mov	 QWORD PTR list$[rsp], rax
$LN7@simple_vm_:
; Line 271
  00031	48 8b 44 24 50	 mov	 rax, QWORD PTR vm$[rsp]
  00036	0f b6 80 30 18
	00 00		 movzx	 eax, BYTE PTR [rax+6192]
  0003d	85 c0		 test	 eax, eax
  0003f	0f 84 76 01 00
	00		 je	 $LN6@simple_vm_
; Line 272
  00045	48 8b 44 24 50	 mov	 rax, QWORD PTR vm$[rsp]
  0004a	0f b6 80 30 18
	00 00		 movzx	 eax, BYTE PTR [rax+6192]
  00051	48 6b c0 18	 imul	 rax, 24
  00055	48 8b 4c 24 50	 mov	 rcx, QWORD PTR vm$[rsp]
  0005a	8b 44 01 30	 mov	 eax, DWORD PTR [rcx+rax+48]
  0005e	83 e0 07	 and	 eax, 7
  00061	83 f8 01	 cmp	 eax, 1
  00064	75 38		 jne	 SHORT $LN5@simple_vm_
; Line 273
  00066	48 8b 44 24 50	 mov	 rax, QWORD PTR vm$[rsp]
  0006b	0f b6 80 30 18
	00 00		 movzx	 eax, BYTE PTR [rax+6192]
  00072	48 6b c0 18	 imul	 rax, 24
  00076	48 8b 4c 24 50	 mov	 rcx, QWORD PTR vm$[rsp]
  0007b	48 8b 44 01 38	 mov	 rax, QWORD PTR [rcx+rax+56]
  00080	4c 8b 00	 mov	 r8, QWORD PTR [rax]
  00083	48 8b 54 24 28	 mov	 rdx, QWORD PTR list$[rsp]
  00088	48 8b 44 24 50	 mov	 rax, QWORD PTR vm$[rsp]
  0008d	48 8b 88 50 19
	00 00		 mov	 rcx, QWORD PTR [rax+6480]
  00094	e8 00 00 00 00	 call	 simple_list_addstring_gc
  00099	e9 ff 00 00 00	 jmp	 $LN4@simple_vm_
$LN5@simple_vm_:
; Line 275
  0009e	48 8b 44 24 50	 mov	 rax, QWORD PTR vm$[rsp]
  000a3	0f b6 80 30 18
	00 00		 movzx	 eax, BYTE PTR [rax+6192]
  000aa	48 6b c0 18	 imul	 rax, 24
  000ae	48 8b 4c 24 50	 mov	 rcx, QWORD PTR vm$[rsp]
  000b3	8b 44 01 30	 mov	 eax, DWORD PTR [rcx+rax+48]
  000b7	83 e0 07	 and	 eax, 7
  000ba	83 f8 02	 cmp	 eax, 2
  000bd	75 36		 jne	 SHORT $LN3@simple_vm_
; Line 276
  000bf	48 8b 44 24 50	 mov	 rax, QWORD PTR vm$[rsp]
  000c4	0f b6 80 30 18
	00 00		 movzx	 eax, BYTE PTR [rax+6192]
  000cb	48 6b c0 18	 imul	 rax, 24
  000cf	48 8b 4c 24 50	 mov	 rcx, QWORD PTR vm$[rsp]
  000d4	f2 0f 10 54 01
	38		 movsdx	 xmm2, QWORD PTR [rcx+rax+56]
  000da	48 8b 54 24 28	 mov	 rdx, QWORD PTR list$[rsp]
  000df	48 8b 44 24 50	 mov	 rax, QWORD PTR vm$[rsp]
  000e4	48 8b 88 50 19
	00 00		 mov	 rcx, QWORD PTR [rax+6480]
  000eb	e8 00 00 00 00	 call	 simple_list_adddouble_gc
  000f0	e9 a8 00 00 00	 jmp	 $LN2@simple_vm_
$LN3@simple_vm_:
; Line 278
  000f5	48 8b 44 24 50	 mov	 rax, QWORD PTR vm$[rsp]
  000fa	0f b6 80 30 18
	00 00		 movzx	 eax, BYTE PTR [rax+6192]
  00101	48 6b c0 18	 imul	 rax, 24
  00105	48 8b 4c 24 50	 mov	 rcx, QWORD PTR vm$[rsp]
  0010a	8b 44 01 30	 mov	 eax, DWORD PTR [rcx+rax+48]
  0010e	83 e0 07	 and	 eax, 7
  00111	83 f8 03	 cmp	 eax, 3
  00114	0f 85 83 00 00
	00		 jne	 $LN1@simple_vm_
; Line 279
  0011a	48 8b 54 24 28	 mov	 rdx, QWORD PTR list$[rsp]
  0011f	48 8b 44 24 50	 mov	 rax, QWORD PTR vm$[rsp]
  00124	48 8b 88 50 19
	00 00		 mov	 rcx, QWORD PTR [rax+6480]
  0012b	e8 00 00 00 00	 call	 simple_list_newlist_gc
  00130	48 89 44 24 30	 mov	 QWORD PTR list2$[rsp], rax
; Line 280
  00135	48 8b 44 24 50	 mov	 rax, QWORD PTR vm$[rsp]
  0013a	0f b6 80 30 18
	00 00		 movzx	 eax, BYTE PTR [rax+6192]
  00141	48 6b c0 18	 imul	 rax, 24
  00145	48 8b 4c 24 50	 mov	 rcx, QWORD PTR vm$[rsp]
  0014a	4c 8b 44 01 38	 mov	 r8, QWORD PTR [rcx+rax+56]
  0014f	48 8b 54 24 30	 mov	 rdx, QWORD PTR list2$[rsp]
  00154	48 8b 44 24 50	 mov	 rax, QWORD PTR vm$[rsp]
  00159	48 8b 88 50 19
	00 00		 mov	 rcx, QWORD PTR [rax+6480]
  00160	e8 00 00 00 00	 call	 simple_list_addpointer_gc
; Line 281
  00165	48 8b 44 24 50	 mov	 rax, QWORD PTR vm$[rsp]
  0016a	0f b6 80 30 18
	00 00		 movzx	 eax, BYTE PTR [rax+6192]
  00171	48 6b c0 18	 imul	 rax, 24
  00175	48 8b 4c 24 50	 mov	 rcx, QWORD PTR vm$[rsp]
  0017a	8b 44 01 30	 mov	 eax, DWORD PTR [rcx+rax+48]
  0017e	c1 e8 05	 shr	 eax, 5
  00181	83 e0 03	 and	 eax, 3
  00184	44 8b c0	 mov	 r8d, eax
  00187	48 8b 54 24 30	 mov	 rdx, QWORD PTR list2$[rsp]
  0018c	48 8b 44 24 50	 mov	 rax, QWORD PTR vm$[rsp]
  00191	48 8b 88 50 19
	00 00		 mov	 rcx, QWORD PTR [rax+6480]
  00198	e8 00 00 00 00	 call	 simple_list_addint_gc
$LN1@simple_vm_:
$LN2@simple_vm_:
$LN4@simple_vm_:
; Line 283
  0019d	48 8b 44 24 50	 mov	 rax, QWORD PTR vm$[rsp]
  001a2	0f b6 80 30 18
	00 00		 movzx	 eax, BYTE PTR [rax+6192]
  001a9	fe c8		 dec	 al
  001ab	48 8b 4c 24 50	 mov	 rcx, QWORD PTR vm$[rsp]
  001b0	88 81 30 18 00
	00		 mov	 BYTE PTR [rcx+6192], al
; Line 284
  001b6	e9 76 fe ff ff	 jmp	 $LN7@simple_vm_
$LN6@simple_vm_:
; Line 285
  001bb	48 8b 44 24 50	 mov	 rax, QWORD PTR vm$[rsp]
  001c0	0f b6 4c 24 20	 movzx	 ecx, BYTE PTR nsp$[rsp]
  001c5	88 88 30 18 00
	00		 mov	 BYTE PTR [rax+6192], cl
; Line 286
  001cb	48 8b 44 24 28	 mov	 rax, QWORD PTR list$[rsp]
; Line 287
  001d0	48 83 c4 48	 add	 rsp, 72			; 00000048H
  001d4	c3		 ret	 0
simple_vm_savestack ENDP
_TEXT	ENDS
; Function compile flags: /Odtp
_TEXT	SEGMENT
pThis$ = 32
vm$ = 64
list$ = 72
x$ = 80
simple_vm_restorestate2 PROC
; File c:\users\thecarisma\documents\simple_github\simple\simple\sources\simple_vmstate.c
; Line 204
$LN4:
  00000	44 89 44 24 18	 mov	 DWORD PTR [rsp+24], r8d
  00005	48 89 54 24 10	 mov	 QWORD PTR [rsp+16], rdx
  0000a	48 89 4c 24 08	 mov	 QWORD PTR [rsp+8], rcx
  0000f	48 83 ec 38	 sub	 rsp, 56			; 00000038H
; Line 207
  00013	8b 54 24 50	 mov	 edx, DWORD PTR x$[rsp]
  00017	48 8b 4c 24 48	 mov	 rcx, QWORD PTR list$[rsp]
  0001c	e8 00 00 00 00	 call	 simple_list_getitem
  00021	48 8b 4c 24 40	 mov	 rcx, QWORD PTR vm$[rsp]
  00026	4c 8b 81 a0 18
	00 00		 mov	 r8, QWORD PTR [rcx+6304]
  0002d	8b 50 08	 mov	 edx, DWORD PTR [rax+8]
  00030	48 8b 4c 24 40	 mov	 rcx, QWORD PTR vm$[rsp]
  00035	e8 00 00 00 00	 call	 simple_vm_backstate
; Line 208
  0003a	8b 44 24 50	 mov	 eax, DWORD PTR x$[rsp]
  0003e	ff c0		 inc	 eax
  00040	8b d0		 mov	 edx, eax
  00042	48 8b 4c 24 48	 mov	 rcx, QWORD PTR list$[rsp]
  00047	e8 00 00 00 00	 call	 simple_list_getitem
  0004c	48 8b 4c 24 40	 mov	 rcx, QWORD PTR vm$[rsp]
  00051	4c 8b 81 a8 18
	00 00		 mov	 r8, QWORD PTR [rcx+6312]
  00058	8b 50 08	 mov	 edx, DWORD PTR [rax+8]
  0005b	48 8b 4c 24 40	 mov	 rcx, QWORD PTR vm$[rsp]
  00060	e8 00 00 00 00	 call	 simple_vm_backstate
; Line 209
  00065	8b 44 24 50	 mov	 eax, DWORD PTR x$[rsp]
  00069	83 c0 02	 add	 eax, 2
  0006c	8b d0		 mov	 edx, eax
  0006e	48 8b 4c 24 48	 mov	 rcx, QWORD PTR list$[rsp]
  00073	e8 00 00 00 00	 call	 simple_list_getitem
  00078	48 8b 4c 24 40	 mov	 rcx, QWORD PTR vm$[rsp]
  0007d	4c 8b 81 b8 18
	00 00		 mov	 r8, QWORD PTR [rcx+6328]
  00084	8b 50 08	 mov	 edx, DWORD PTR [rax+8]
  00087	48 8b 4c 24 40	 mov	 rcx, QWORD PTR vm$[rsp]
  0008c	e8 00 00 00 00	 call	 simple_vm_backstate
; Line 210
  00091	8b 44 24 50	 mov	 eax, DWORD PTR x$[rsp]
  00095	83 c0 03	 add	 eax, 3
  00098	8b d0		 mov	 edx, eax
  0009a	48 8b 4c 24 48	 mov	 rcx, QWORD PTR list$[rsp]
  0009f	e8 00 00 00 00	 call	 simple_list_getitem
  000a4	48 8b 4c 24 40	 mov	 rcx, QWORD PTR vm$[rsp]
  000a9	4c 8b 81 e0 18
	00 00		 mov	 r8, QWORD PTR [rcx+6368]
  000b0	8b 50 08	 mov	 edx, DWORD PTR [rax+8]
  000b3	48 8b 4c 24 40	 mov	 rcx, QWORD PTR vm$[rsp]
  000b8	e8 00 00 00 00	 call	 simple_vm_backstate
; Line 211
  000bd	8b 44 24 50	 mov	 eax, DWORD PTR x$[rsp]
  000c1	83 c0 04	 add	 eax, 4
  000c4	8b d0		 mov	 edx, eax
  000c6	48 8b 4c 24 48	 mov	 rcx, QWORD PTR list$[rsp]
  000cb	e8 00 00 00 00	 call	 simple_list_getitem
  000d0	48 8b 4c 24 40	 mov	 rcx, QWORD PTR vm$[rsp]
  000d5	48 8b 40 08	 mov	 rax, QWORD PTR [rax+8]
  000d9	48 89 81 d8 18
	00 00		 mov	 QWORD PTR [rcx+6360], rax
; Line 212
  000e0	8b 44 24 50	 mov	 eax, DWORD PTR x$[rsp]
  000e4	83 c0 05	 add	 eax, 5
  000e7	8b d0		 mov	 edx, eax
  000e9	48 8b 4c 24 48	 mov	 rcx, QWORD PTR list$[rsp]
  000ee	e8 00 00 00 00	 call	 simple_list_getitem
  000f3	48 8b 4c 24 40	 mov	 rcx, QWORD PTR vm$[rsp]
  000f8	4c 8b 81 d0 18
	00 00		 mov	 r8, QWORD PTR [rcx+6352]
  000ff	8b 50 08	 mov	 edx, DWORD PTR [rax+8]
  00102	48 8b 4c 24 40	 mov	 rcx, QWORD PTR vm$[rsp]
  00107	e8 00 00 00 00	 call	 simple_vm_backstate
; Line 213
  0010c	8b 44 24 50	 mov	 eax, DWORD PTR x$[rsp]
  00110	83 c0 06	 add	 eax, 6
  00113	8b d0		 mov	 edx, eax
  00115	48 8b 4c 24 48	 mov	 rcx, QWORD PTR list$[rsp]
  0011a	e8 00 00 00 00	 call	 simple_list_getitem
  0011f	48 8b 4c 24 40	 mov	 rcx, QWORD PTR vm$[rsp]
  00124	0f b6 40 08	 movzx	 eax, BYTE PTR [rax+8]
  00128	88 81 00 19 00
	00		 mov	 BYTE PTR [rcx+6400], al
; Line 214
  0012e	8b 44 24 50	 mov	 eax, DWORD PTR x$[rsp]
  00132	83 c0 07	 add	 eax, 7
  00135	8b d0		 mov	 edx, eax
  00137	48 8b 4c 24 48	 mov	 rcx, QWORD PTR list$[rsp]
  0013c	e8 00 00 00 00	 call	 simple_list_getitem
  00141	48 8b 4c 24 40	 mov	 rcx, QWORD PTR vm$[rsp]
  00146	4c 8b 81 40 19
	00 00		 mov	 r8, QWORD PTR [rcx+6464]
  0014d	8b 50 08	 mov	 edx, DWORD PTR [rax+8]
  00150	48 8b 4c 24 40	 mov	 rcx, QWORD PTR vm$[rsp]
  00155	e8 00 00 00 00	 call	 simple_vm_backstate
; Line 215
  0015a	8b 44 24 50	 mov	 eax, DWORD PTR x$[rsp]
  0015e	83 c0 08	 add	 eax, 8
  00161	8b d0		 mov	 edx, eax
  00163	48 8b 4c 24 48	 mov	 rcx, QWORD PTR list$[rsp]
  00168	e8 00 00 00 00	 call	 simple_list_getitem
  0016d	48 8b 4c 24 40	 mov	 rcx, QWORD PTR vm$[rsp]
  00172	48 8b 40 08	 mov	 rax, QWORD PTR [rax+8]
  00176	48 89 81 40 18
	00 00		 mov	 QWORD PTR [rcx+6208], rax
; Line 216
  0017d	8b 44 24 50	 mov	 eax, DWORD PTR x$[rsp]
  00181	83 c0 09	 add	 eax, 9
  00184	8b d0		 mov	 edx, eax
  00186	48 8b 4c 24 48	 mov	 rcx, QWORD PTR list$[rsp]
  0018b	e8 00 00 00 00	 call	 simple_list_getitem
  00190	48 8b 4c 24 40	 mov	 rcx, QWORD PTR vm$[rsp]
  00195	8b 40 08	 mov	 eax, DWORD PTR [rax+8]
  00198	89 81 70 19 00
	00		 mov	 DWORD PTR [rcx+6512], eax
; Line 218
  0019e	48 8b 44 24 40	 mov	 rax, QWORD PTR vm$[rsp]
  001a3	48 8b 90 80 18
	00 00		 mov	 rdx, QWORD PTR [rax+6272]
  001aa	48 8b 44 24 40	 mov	 rax, QWORD PTR vm$[rsp]
  001af	48 8b 88 50 19
	00 00		 mov	 rcx, QWORD PTR [rax+6480]
  001b6	e8 00 00 00 00	 call	 simple_list_delete_gc
  001bb	48 8b 4c 24 40	 mov	 rcx, QWORD PTR vm$[rsp]
  001c0	48 89 81 80 18
	00 00		 mov	 QWORD PTR [rcx+6272], rax
; Line 219
  001c7	8b 44 24 50	 mov	 eax, DWORD PTR x$[rsp]
  001cb	83 c0 0a	 add	 eax, 10
  001ce	8b d0		 mov	 edx, eax
  001d0	48 8b 4c 24 48	 mov	 rcx, QWORD PTR list$[rsp]
  001d5	e8 00 00 00 00	 call	 simple_list_getitem
  001da	48 8b 4c 24 40	 mov	 rcx, QWORD PTR vm$[rsp]
  001df	8b 40 08	 mov	 eax, DWORD PTR [rax+8]
  001e2	89 81 78 18 00
	00		 mov	 DWORD PTR [rcx+6264], eax
; Line 220
  001e8	8b 44 24 50	 mov	 eax, DWORD PTR x$[rsp]
  001ec	83 c0 0b	 add	 eax, 11
  001ef	8b d0		 mov	 edx, eax
  001f1	48 8b 4c 24 48	 mov	 rcx, QWORD PTR list$[rsp]
  001f6	e8 00 00 00 00	 call	 simple_list_getitem
  001fb	48 8b 4c 24 40	 mov	 rcx, QWORD PTR vm$[rsp]
  00200	48 8b 40 08	 mov	 rax, QWORD PTR [rax+8]
  00204	48 89 81 80 18
	00 00		 mov	 QWORD PTR [rcx+6272], rax
; Line 222
  0020b	8b 44 24 50	 mov	 eax, DWORD PTR x$[rsp]
  0020f	83 c0 0c	 add	 eax, 12
  00212	8b d0		 mov	 edx, eax
  00214	48 8b 4c 24 48	 mov	 rcx, QWORD PTR list$[rsp]
  00219	e8 00 00 00 00	 call	 simple_list_getitem
  0021e	48 8b 4c 24 40	 mov	 rcx, QWORD PTR vm$[rsp]
  00223	0f b6 40 08	 movzx	 eax, BYTE PTR [rax+8]
  00227	88 81 10 19 00
	00		 mov	 BYTE PTR [rcx+6416], al
; Line 224
  0022d	8b 44 24 50	 mov	 eax, DWORD PTR x$[rsp]
  00231	83 c0 0d	 add	 eax, 13
  00234	8b d0		 mov	 edx, eax
  00236	48 8b 4c 24 48	 mov	 rcx, QWORD PTR list$[rsp]
  0023b	e8 00 00 00 00	 call	 simple_list_getitem
  00240	48 8b 4c 24 40	 mov	 rcx, QWORD PTR vm$[rsp]
  00245	0f b6 40 08	 movzx	 eax, BYTE PTR [rax+8]
  00249	88 81 b9 19 00
	00		 mov	 BYTE PTR [rcx+6585], al
; Line 225
  0024f	8b 44 24 50	 mov	 eax, DWORD PTR x$[rsp]
  00253	83 c0 0e	 add	 eax, 14
  00256	8b d0		 mov	 edx, eax
  00258	48 8b 4c 24 48	 mov	 rcx, QWORD PTR list$[rsp]
  0025d	e8 00 00 00 00	 call	 simple_list_getitem
  00262	48 8b 4c 24 40	 mov	 rcx, QWORD PTR vm$[rsp]
  00267	8b 40 08	 mov	 eax, DWORD PTR [rax+8]
  0026a	89 81 94 18 00
	00		 mov	 DWORD PTR [rcx+6292], eax
; Line 226
  00270	8b 44 24 50	 mov	 eax, DWORD PTR x$[rsp]
  00274	83 c0 0f	 add	 eax, 15
  00277	8b d0		 mov	 edx, eax
  00279	48 8b 4c 24 48	 mov	 rcx, QWORD PTR list$[rsp]
  0027e	e8 00 00 00 00	 call	 simple_list_getitem
  00283	48 8b 4c 24 40	 mov	 rcx, QWORD PTR vm$[rsp]
  00288	48 8b 40 08	 mov	 rax, QWORD PTR [rax+8]
  0028c	48 89 81 30 19
	00 00		 mov	 QWORD PTR [rcx+6448], rax
; Line 227
  00293	8b 44 24 50	 mov	 eax, DWORD PTR x$[rsp]
  00297	83 c0 10	 add	 eax, 16
  0029a	8b d0		 mov	 edx, eax
  0029c	48 8b 4c 24 48	 mov	 rcx, QWORD PTR list$[rsp]
  002a1	e8 00 00 00 00	 call	 simple_list_getitem
  002a6	48 8b 4c 24 40	 mov	 rcx, QWORD PTR vm$[rsp]
  002ab	0f b6 40 08	 movzx	 eax, BYTE PTR [rax+8]
  002af	88 81 01 19 00
	00		 mov	 BYTE PTR [rcx+6401], al
; Line 228
  002b5	8b 44 24 50	 mov	 eax, DWORD PTR x$[rsp]
  002b9	83 c0 11	 add	 eax, 17
  002bc	8b d0		 mov	 edx, eax
  002be	48 8b 4c 24 48	 mov	 rcx, QWORD PTR list$[rsp]
  002c3	e8 00 00 00 00	 call	 simple_list_getitem
  002c8	48 8b 4c 24 40	 mov	 rcx, QWORD PTR vm$[rsp]
  002cd	8b 40 08	 mov	 eax, DWORD PTR [rax+8]
  002d0	89 81 f8 18 00
	00		 mov	 DWORD PTR [rcx+6392], eax
; Line 229
  002d6	8b 44 24 50	 mov	 eax, DWORD PTR x$[rsp]
  002da	83 c0 12	 add	 eax, 18
  002dd	8b d0		 mov	 edx, eax
  002df	48 8b 4c 24 48	 mov	 rcx, QWORD PTR list$[rsp]
  002e4	e8 00 00 00 00	 call	 simple_list_getitem
  002e9	48 8b 4c 24 40	 mov	 rcx, QWORD PTR vm$[rsp]
  002ee	4c 8b 81 c0 18
	00 00		 mov	 r8, QWORD PTR [rcx+6336]
  002f5	8b 50 08	 mov	 edx, DWORD PTR [rax+8]
  002f8	48 8b 4c 24 40	 mov	 rcx, QWORD PTR vm$[rsp]
  002fd	e8 00 00 00 00	 call	 simple_vm_backstate
; Line 230
  00302	8b 44 24 50	 mov	 eax, DWORD PTR x$[rsp]
  00306	83 c0 13	 add	 eax, 19
  00309	8b d0		 mov	 edx, eax
  0030b	48 8b 4c 24 48	 mov	 rcx, QWORD PTR list$[rsp]
  00310	e8 00 00 00 00	 call	 simple_list_getitem
  00315	48 8b 4c 24 40	 mov	 rcx, QWORD PTR vm$[rsp]
  0031a	4c 8b 81 f0 18
	00 00		 mov	 r8, QWORD PTR [rcx+6384]
  00321	8b 50 08	 mov	 edx, DWORD PTR [rax+8]
  00324	48 8b 4c 24 40	 mov	 rcx, QWORD PTR vm$[rsp]
  00329	e8 00 00 00 00	 call	 simple_vm_backstate
; Line 231
  0032e	8b 44 24 50	 mov	 eax, DWORD PTR x$[rsp]
  00332	83 c0 14	 add	 eax, 20
  00335	8b d0		 mov	 edx, eax
  00337	48 8b 4c 24 48	 mov	 rcx, QWORD PTR list$[rsp]
  0033c	e8 00 00 00 00	 call	 simple_list_getitem
  00341	48 8b 4c 24 40	 mov	 rcx, QWORD PTR vm$[rsp]
  00346	8b 40 08	 mov	 eax, DWORD PTR [rax+8]
  00349	89 81 68 18 00
	00		 mov	 DWORD PTR [rcx+6248], eax
; Line 232
  0034f	8b 44 24 50	 mov	 eax, DWORD PTR x$[rsp]
  00353	83 c0 15	 add	 eax, 21
  00356	8b d0		 mov	 edx, eax
  00358	48 8b 4c 24 48	 mov	 rcx, QWORD PTR list$[rsp]
  0035d	e8 00 00 00 00	 call	 simple_list_getitem
  00362	48 8b 4c 24 40	 mov	 rcx, QWORD PTR vm$[rsp]
  00367	0f b6 40 08	 movzx	 eax, BYTE PTR [rax+8]
  0036b	88 81 49 19 00
	00		 mov	 BYTE PTR [rcx+6473], al
; Line 233
  00371	8b 44 24 50	 mov	 eax, DWORD PTR x$[rsp]
  00375	83 c0 16	 add	 eax, 22
  00378	8b d0		 mov	 edx, eax
  0037a	48 8b 4c 24 48	 mov	 rcx, QWORD PTR list$[rsp]
  0037f	e8 00 00 00 00	 call	 simple_list_getitem
  00384	48 8b 4c 24 40	 mov	 rcx, QWORD PTR vm$[rsp]
  00389	0f b6 40 08	 movzx	 eax, BYTE PTR [rax+8]
  0038d	88 81 4a 19 00
	00		 mov	 BYTE PTR [rcx+6474], al
; Line 234
  00393	8b 44 24 50	 mov	 eax, DWORD PTR x$[rsp]
  00397	83 c0 17	 add	 eax, 23
  0039a	8b d0		 mov	 edx, eax
  0039c	48 8b 4c 24 48	 mov	 rcx, QWORD PTR list$[rsp]
  003a1	e8 00 00 00 00	 call	 simple_list_getitem
  003a6	48 8b 4c 24 40	 mov	 rcx, QWORD PTR vm$[rsp]
  003ab	0f b6 40 08	 movzx	 eax, BYTE PTR [rax+8]
  003af	88 81 11 19 00
	00		 mov	 BYTE PTR [rcx+6417], al
; Line 235
  003b5	8b 44 24 50	 mov	 eax, DWORD PTR x$[rsp]
  003b9	83 c0 18	 add	 eax, 24
  003bc	8b d0		 mov	 edx, eax
  003be	48 8b 4c 24 48	 mov	 rcx, QWORD PTR list$[rsp]
  003c3	e8 00 00 00 00	 call	 simple_list_getitem
  003c8	48 8b 4c 24 40	 mov	 rcx, QWORD PTR vm$[rsp]
  003cd	0f b6 40 08	 movzx	 eax, BYTE PTR [rax+8]
  003d1	88 81 20 19 00
	00		 mov	 BYTE PTR [rcx+6432], al
; Line 236
  003d7	8b 44 24 50	 mov	 eax, DWORD PTR x$[rsp]
  003db	83 c0 19	 add	 eax, 25
  003de	8b d0		 mov	 edx, eax
  003e0	48 8b 4c 24 48	 mov	 rcx, QWORD PTR list$[rsp]
  003e5	e8 00 00 00 00	 call	 simple_list_getitem
  003ea	48 8b 4c 24 40	 mov	 rcx, QWORD PTR vm$[rsp]
  003ef	48 8b 40 08	 mov	 rax, QWORD PTR [rax+8]
  003f3	48 89 81 18 19
	00 00		 mov	 QWORD PTR [rcx+6424], rax
; Line 237
  003fa	8b 44 24 50	 mov	 eax, DWORD PTR x$[rsp]
  003fe	83 c0 1a	 add	 eax, 26
  00401	8b d0		 mov	 edx, eax
  00403	48 8b 4c 24 48	 mov	 rcx, QWORD PTR list$[rsp]
  00408	e8 00 00 00 00	 call	 simple_list_getitem
  0040d	48 8b 4c 24 40	 mov	 rcx, QWORD PTR vm$[rsp]
  00412	48 8b 40 08	 mov	 rax, QWORD PTR [rax+8]
  00416	48 89 81 58 19
	00 00		 mov	 QWORD PTR [rcx+6488], rax
; Line 238
  0041d	8b 44 24 50	 mov	 eax, DWORD PTR x$[rsp]
  00421	83 c0 1b	 add	 eax, 27
  00424	8b d0		 mov	 edx, eax
  00426	48 8b 4c 24 48	 mov	 rcx, QWORD PTR list$[rsp]
  0042b	e8 00 00 00 00	 call	 simple_list_getitem
  00430	48 8b 4c 24 40	 mov	 rcx, QWORD PTR vm$[rsp]
  00435	4c 8b 81 68 19
	00 00		 mov	 r8, QWORD PTR [rcx+6504]
  0043c	8b 50 08	 mov	 edx, DWORD PTR [rax+8]
  0043f	48 8b 4c 24 40	 mov	 rcx, QWORD PTR vm$[rsp]
  00444	e8 00 00 00 00	 call	 simple_vm_backstate
; Line 240
  00449	8b 44 24 50	 mov	 eax, DWORD PTR x$[rsp]
  0044d	83 c0 1e	 add	 eax, 30
  00450	8b d0		 mov	 edx, eax
  00452	48 8b 4c 24 48	 mov	 rcx, QWORD PTR list$[rsp]
  00457	e8 00 00 00 00	 call	 simple_list_getitem
  0045c	48 8b 4c 24 40	 mov	 rcx, QWORD PTR vm$[rsp]
  00461	8b 40 08	 mov	 eax, DWORD PTR [rax+8]
  00464	89 81 18 1a 00
	00		 mov	 DWORD PTR [rcx+6680], eax
; Line 242
  0046a	48 8b 4c 24 40	 mov	 rcx, QWORD PTR vm$[rsp]
  0046f	e8 00 00 00 00	 call	 simple_vm_getglobalscope
  00474	ba 0c 00 00 00	 mov	 edx, 12
  00479	48 8b c8	 mov	 rcx, rax
  0047c	e8 00 00 00 00	 call	 simple_list_getlist
  00481	48 89 44 24 20	 mov	 QWORD PTR pThis$[rsp], rax
; Line 243
  00486	8b 44 24 50	 mov	 eax, DWORD PTR x$[rsp]
  0048a	83 c0 1c	 add	 eax, 28
  0048d	8b d0		 mov	 edx, eax
  0048f	48 8b 4c 24 48	 mov	 rcx, QWORD PTR list$[rsp]
  00494	e8 00 00 00 00	 call	 simple_list_getitem
  00499	4c 8b 48 08	 mov	 r9, QWORD PTR [rax+8]
  0049d	41 b8 03 00 00
	00		 mov	 r8d, 3
  004a3	48 8b 54 24 20	 mov	 rdx, QWORD PTR pThis$[rsp]
  004a8	48 8b 44 24 40	 mov	 rax, QWORD PTR vm$[rsp]
  004ad	48 8b 88 50 19
	00 00		 mov	 rcx, QWORD PTR [rax+6480]
  004b4	e8 00 00 00 00	 call	 simple_list_setpointer_gc
; Line 244
  004b9	8b 44 24 50	 mov	 eax, DWORD PTR x$[rsp]
  004bd	83 c0 1d	 add	 eax, 29
  004c0	8b d0		 mov	 edx, eax
  004c2	48 8b 4c 24 48	 mov	 rcx, QWORD PTR list$[rsp]
  004c7	e8 00 00 00 00	 call	 simple_list_getitem
  004cc	44 8b 48 08	 mov	 r9d, DWORD PTR [rax+8]
  004d0	41 b8 04 00 00
	00		 mov	 r8d, 4
  004d6	48 8b 54 24 20	 mov	 rdx, QWORD PTR pThis$[rsp]
  004db	48 8b 44 24 40	 mov	 rax, QWORD PTR vm$[rsp]
  004e0	48 8b 88 50 19
	00 00		 mov	 rcx, QWORD PTR [rax+6480]
  004e7	e8 00 00 00 00	 call	 simple_list_setint_gc
; Line 246
  004ec	48 8b 44 24 40	 mov	 rax, QWORD PTR vm$[rsp]
  004f1	48 8b 80 e0 18
	00 00		 mov	 rax, QWORD PTR [rax+6368]
  004f8	83 78 10 00	 cmp	 DWORD PTR [rax+16], 0
  004fc	7e 3b		 jle	 SHORT $LN1@simple_vm_
; Line 247
  004fe	48 8b 44 24 40	 mov	 rax, QWORD PTR vm$[rsp]
  00503	48 8b 80 e0 18
	00 00		 mov	 rax, QWORD PTR [rax+6368]
  0050a	8b 50 10	 mov	 edx, DWORD PTR [rax+16]
  0050d	48 8b 44 24 40	 mov	 rax, QWORD PTR vm$[rsp]
  00512	48 8b 88 e0 18
	00 00		 mov	 rcx, QWORD PTR [rax+6368]
  00519	e8 00 00 00 00	 call	 simple_list_getlist
  0051e	ba 01 00 00 00	 mov	 edx, 1
  00523	48 8b c8	 mov	 rcx, rax
  00526	e8 00 00 00 00	 call	 simple_list_getitem
  0052b	48 8b 50 08	 mov	 rdx, QWORD PTR [rax+8]
  0052f	48 8b 4c 24 40	 mov	 rcx, QWORD PTR vm$[rsp]
  00534	e8 00 00 00 00	 call	 simple_vm_oop_updateselfpointer2
$LN1@simple_vm_:
; Line 249
  00539	48 83 c4 38	 add	 rsp, 56			; 00000038H
  0053d	c3		 ret	 0
simple_vm_restorestate2 ENDP
_TEXT	ENDS
; Function compile flags: /Odtp
_TEXT	SEGMENT
pThis$ = 32
vm$ = 64
list$ = 72
simple_vm_savestate2 PROC
; File c:\users\thecarisma\documents\simple_github\simple\simple\sources\simple_vmstate.c
; Line 154
$LN3:
  00000	48 89 54 24 10	 mov	 QWORD PTR [rsp+16], rdx
  00005	48 89 4c 24 08	 mov	 QWORD PTR [rsp+8], rcx
  0000a	48 83 ec 38	 sub	 rsp, 56			; 00000038H
; Line 157
  0000e	48 8b 44 24 40	 mov	 rax, QWORD PTR vm$[rsp]
  00013	48 8b 80 a0 18
	00 00		 mov	 rax, QWORD PTR [rax+6304]
  0001a	44 8b 40 10	 mov	 r8d, DWORD PTR [rax+16]
  0001e	48 8b 54 24 48	 mov	 rdx, QWORD PTR list$[rsp]
  00023	48 8b 44 24 40	 mov	 rax, QWORD PTR vm$[rsp]
  00028	48 8b 88 50 19
	00 00		 mov	 rcx, QWORD PTR [rax+6480]
  0002f	e8 00 00 00 00	 call	 simple_list_addint_gc
; Line 158
  00034	48 8b 44 24 40	 mov	 rax, QWORD PTR vm$[rsp]
  00039	48 8b 80 a8 18
	00 00		 mov	 rax, QWORD PTR [rax+6312]
  00040	44 8b 40 10	 mov	 r8d, DWORD PTR [rax+16]
  00044	48 8b 54 24 48	 mov	 rdx, QWORD PTR list$[rsp]
  00049	48 8b 44 24 40	 mov	 rax, QWORD PTR vm$[rsp]
  0004e	48 8b 88 50 19
	00 00		 mov	 rcx, QWORD PTR [rax+6480]
  00055	e8 00 00 00 00	 call	 simple_list_addint_gc
; Line 159
  0005a	48 8b 44 24 40	 mov	 rax, QWORD PTR vm$[rsp]
  0005f	48 8b 80 b8 18
	00 00		 mov	 rax, QWORD PTR [rax+6328]
  00066	44 8b 40 10	 mov	 r8d, DWORD PTR [rax+16]
  0006a	48 8b 54 24 48	 mov	 rdx, QWORD PTR list$[rsp]
  0006f	48 8b 44 24 40	 mov	 rax, QWORD PTR vm$[rsp]
  00074	48 8b 88 50 19
	00 00		 mov	 rcx, QWORD PTR [rax+6480]
  0007b	e8 00 00 00 00	 call	 simple_list_addint_gc
; Line 160
  00080	48 8b 44 24 40	 mov	 rax, QWORD PTR vm$[rsp]
  00085	48 8b 80 e0 18
	00 00		 mov	 rax, QWORD PTR [rax+6368]
  0008c	44 8b 40 10	 mov	 r8d, DWORD PTR [rax+16]
  00090	48 8b 54 24 48	 mov	 rdx, QWORD PTR list$[rsp]
  00095	48 8b 44 24 40	 mov	 rax, QWORD PTR vm$[rsp]
  0009a	48 8b 88 50 19
	00 00		 mov	 rcx, QWORD PTR [rax+6480]
  000a1	e8 00 00 00 00	 call	 simple_list_addint_gc
; Line 161
  000a6	48 8b 44 24 40	 mov	 rax, QWORD PTR vm$[rsp]
  000ab	4c 8b 80 d8 18
	00 00		 mov	 r8, QWORD PTR [rax+6360]
  000b2	48 8b 54 24 48	 mov	 rdx, QWORD PTR list$[rsp]
  000b7	48 8b 44 24 40	 mov	 rax, QWORD PTR vm$[rsp]
  000bc	48 8b 88 50 19
	00 00		 mov	 rcx, QWORD PTR [rax+6480]
  000c3	e8 00 00 00 00	 call	 simple_list_addpointer_gc
; Line 162
  000c8	48 8b 44 24 40	 mov	 rax, QWORD PTR vm$[rsp]
  000cd	48 8b 80 d0 18
	00 00		 mov	 rax, QWORD PTR [rax+6352]
  000d4	44 8b 40 10	 mov	 r8d, DWORD PTR [rax+16]
  000d8	48 8b 54 24 48	 mov	 rdx, QWORD PTR list$[rsp]
  000dd	48 8b 44 24 40	 mov	 rax, QWORD PTR vm$[rsp]
  000e2	48 8b 88 50 19
	00 00		 mov	 rcx, QWORD PTR [rax+6480]
  000e9	e8 00 00 00 00	 call	 simple_list_addint_gc
; Line 163
  000ee	48 8b 44 24 40	 mov	 rax, QWORD PTR vm$[rsp]
  000f3	0f be 80 00 19
	00 00		 movsx	 eax, BYTE PTR [rax+6400]
  000fa	44 8b c0	 mov	 r8d, eax
  000fd	48 8b 54 24 48	 mov	 rdx, QWORD PTR list$[rsp]
  00102	48 8b 44 24 40	 mov	 rax, QWORD PTR vm$[rsp]
  00107	48 8b 88 50 19
	00 00		 mov	 rcx, QWORD PTR [rax+6480]
  0010e	e8 00 00 00 00	 call	 simple_list_addint_gc
; Line 164
  00113	48 8b 44 24 40	 mov	 rax, QWORD PTR vm$[rsp]
  00118	48 8b 80 40 19
	00 00		 mov	 rax, QWORD PTR [rax+6464]
  0011f	44 8b 40 10	 mov	 r8d, DWORD PTR [rax+16]
  00123	48 8b 54 24 48	 mov	 rdx, QWORD PTR list$[rsp]
  00128	48 8b 44 24 40	 mov	 rax, QWORD PTR vm$[rsp]
  0012d	48 8b 88 50 19
	00 00		 mov	 rcx, QWORD PTR [rax+6480]
  00134	e8 00 00 00 00	 call	 simple_list_addint_gc
; Line 165
  00139	48 8b 44 24 40	 mov	 rax, QWORD PTR vm$[rsp]
  0013e	4c 8b 80 40 18
	00 00		 mov	 r8, QWORD PTR [rax+6208]
  00145	48 8b 54 24 48	 mov	 rdx, QWORD PTR list$[rsp]
  0014a	48 8b 44 24 40	 mov	 rax, QWORD PTR vm$[rsp]
  0014f	48 8b 88 50 19
	00 00		 mov	 rcx, QWORD PTR [rax+6480]
  00156	e8 00 00 00 00	 call	 simple_list_addpointer_gc
; Line 166
  0015b	48 8b 44 24 40	 mov	 rax, QWORD PTR vm$[rsp]
  00160	44 8b 80 70 19
	00 00		 mov	 r8d, DWORD PTR [rax+6512]
  00167	48 8b 54 24 48	 mov	 rdx, QWORD PTR list$[rsp]
  0016c	48 8b 44 24 40	 mov	 rax, QWORD PTR vm$[rsp]
  00171	48 8b 88 50 19
	00 00		 mov	 rcx, QWORD PTR [rax+6480]
  00178	e8 00 00 00 00	 call	 simple_list_addint_gc
; Line 167
  0017d	48 8b 44 24 40	 mov	 rax, QWORD PTR vm$[rsp]
  00182	c6 80 00 19 00
	00 00		 mov	 BYTE PTR [rax+6400], 0
; Line 169
  00189	48 8b 44 24 40	 mov	 rax, QWORD PTR vm$[rsp]
  0018e	44 8b 80 78 18
	00 00		 mov	 r8d, DWORD PTR [rax+6264]
  00195	48 8b 54 24 48	 mov	 rdx, QWORD PTR list$[rsp]
  0019a	48 8b 44 24 40	 mov	 rax, QWORD PTR vm$[rsp]
  0019f	48 8b 88 50 19
	00 00		 mov	 rcx, QWORD PTR [rax+6480]
  001a6	e8 00 00 00 00	 call	 simple_list_addint_gc
; Line 170
  001ab	48 8b 44 24 40	 mov	 rax, QWORD PTR vm$[rsp]
  001b0	4c 8b 80 80 18
	00 00		 mov	 r8, QWORD PTR [rax+6272]
  001b7	48 8b 54 24 48	 mov	 rdx, QWORD PTR list$[rsp]
  001bc	48 8b 44 24 40	 mov	 rax, QWORD PTR vm$[rsp]
  001c1	48 8b 88 50 19
	00 00		 mov	 rcx, QWORD PTR [rax+6480]
  001c8	e8 00 00 00 00	 call	 simple_list_addpointer_gc
; Line 171
  001cd	48 8b 44 24 40	 mov	 rax, QWORD PTR vm$[rsp]
  001d2	c7 80 78 18 00
	00 00 00 00 00	 mov	 DWORD PTR [rax+6264], 0
; Line 172
  001dc	33 d2		 xor	 edx, edx
  001de	48 8b 44 24 40	 mov	 rax, QWORD PTR vm$[rsp]
  001e3	48 8b 88 50 19
	00 00		 mov	 rcx, QWORD PTR [rax+6480]
  001ea	e8 00 00 00 00	 call	 simple_list_new_gc
  001ef	48 8b 4c 24 40	 mov	 rcx, QWORD PTR vm$[rsp]
  001f4	48 89 81 80 18
	00 00		 mov	 QWORD PTR [rcx+6272], rax
; Line 174
  001fb	48 8b 44 24 40	 mov	 rax, QWORD PTR vm$[rsp]
  00200	0f be 80 10 19
	00 00		 movsx	 eax, BYTE PTR [rax+6416]
  00207	44 8b c0	 mov	 r8d, eax
  0020a	48 8b 54 24 48	 mov	 rdx, QWORD PTR list$[rsp]
  0020f	48 8b 44 24 40	 mov	 rax, QWORD PTR vm$[rsp]
  00214	48 8b 88 50 19
	00 00		 mov	 rcx, QWORD PTR [rax+6480]
  0021b	e8 00 00 00 00	 call	 simple_list_addint_gc
; Line 175
  00220	48 8b 44 24 40	 mov	 rax, QWORD PTR vm$[rsp]
  00225	c6 80 10 19 00
	00 00		 mov	 BYTE PTR [rax+6416], 0
; Line 177
  0022c	48 8b 44 24 40	 mov	 rax, QWORD PTR vm$[rsp]
  00231	0f be 80 b9 19
	00 00		 movsx	 eax, BYTE PTR [rax+6585]
  00238	44 8b c0	 mov	 r8d, eax
  0023b	48 8b 54 24 48	 mov	 rdx, QWORD PTR list$[rsp]
  00240	48 8b 44 24 40	 mov	 rax, QWORD PTR vm$[rsp]
  00245	48 8b 88 50 19
	00 00		 mov	 rcx, QWORD PTR [rax+6480]
  0024c	e8 00 00 00 00	 call	 simple_list_addint_gc
; Line 178
  00251	48 8b 44 24 40	 mov	 rax, QWORD PTR vm$[rsp]
  00256	c6 80 b9 19 00
	00 00		 mov	 BYTE PTR [rax+6585], 0
; Line 179
  0025d	48 8b 44 24 40	 mov	 rax, QWORD PTR vm$[rsp]
  00262	44 8b 80 94 18
	00 00		 mov	 r8d, DWORD PTR [rax+6292]
  00269	48 8b 54 24 48	 mov	 rdx, QWORD PTR list$[rsp]
  0026e	48 8b 44 24 40	 mov	 rax, QWORD PTR vm$[rsp]
  00273	48 8b 88 50 19
	00 00		 mov	 rcx, QWORD PTR [rax+6480]
  0027a	e8 00 00 00 00	 call	 simple_list_addint_gc
; Line 180
  0027f	48 8b 44 24 40	 mov	 rax, QWORD PTR vm$[rsp]
  00284	4c 8b 80 30 19
	00 00		 mov	 r8, QWORD PTR [rax+6448]
  0028b	48 8b 54 24 48	 mov	 rdx, QWORD PTR list$[rsp]
  00290	48 8b 44 24 40	 mov	 rax, QWORD PTR vm$[rsp]
  00295	48 8b 88 50 19
	00 00		 mov	 rcx, QWORD PTR [rax+6480]
  0029c	e8 00 00 00 00	 call	 simple_list_addpointer_gc
; Line 181
  002a1	48 8b 44 24 40	 mov	 rax, QWORD PTR vm$[rsp]
  002a6	0f be 80 01 19
	00 00		 movsx	 eax, BYTE PTR [rax+6401]
  002ad	44 8b c0	 mov	 r8d, eax
  002b0	48 8b 54 24 48	 mov	 rdx, QWORD PTR list$[rsp]
  002b5	48 8b 44 24 40	 mov	 rax, QWORD PTR vm$[rsp]
  002ba	48 8b 88 50 19
	00 00		 mov	 rcx, QWORD PTR [rax+6480]
  002c1	e8 00 00 00 00	 call	 simple_list_addint_gc
; Line 182
  002c6	48 8b 44 24 40	 mov	 rax, QWORD PTR vm$[rsp]
  002cb	44 8b 80 f8 18
	00 00		 mov	 r8d, DWORD PTR [rax+6392]
  002d2	48 8b 54 24 48	 mov	 rdx, QWORD PTR list$[rsp]
  002d7	48 8b 44 24 40	 mov	 rax, QWORD PTR vm$[rsp]
  002dc	48 8b 88 50 19
	00 00		 mov	 rcx, QWORD PTR [rax+6480]
  002e3	e8 00 00 00 00	 call	 simple_list_addint_gc
; Line 183
  002e8	48 8b 44 24 40	 mov	 rax, QWORD PTR vm$[rsp]
  002ed	48 8b 80 c0 18
	00 00		 mov	 rax, QWORD PTR [rax+6336]
  002f4	44 8b 40 10	 mov	 r8d, DWORD PTR [rax+16]
  002f8	48 8b 54 24 48	 mov	 rdx, QWORD PTR list$[rsp]
  002fd	48 8b 44 24 40	 mov	 rax, QWORD PTR vm$[rsp]
  00302	48 8b 88 50 19
	00 00		 mov	 rcx, QWORD PTR [rax+6480]
  00309	e8 00 00 00 00	 call	 simple_list_addint_gc
; Line 184
  0030e	48 8b 44 24 40	 mov	 rax, QWORD PTR vm$[rsp]
  00313	48 8b 80 f0 18
	00 00		 mov	 rax, QWORD PTR [rax+6384]
  0031a	44 8b 40 10	 mov	 r8d, DWORD PTR [rax+16]
  0031e	48 8b 54 24 48	 mov	 rdx, QWORD PTR list$[rsp]
  00323	48 8b 44 24 40	 mov	 rax, QWORD PTR vm$[rsp]
  00328	48 8b 88 50 19
	00 00		 mov	 rcx, QWORD PTR [rax+6480]
  0032f	e8 00 00 00 00	 call	 simple_list_addint_gc
; Line 185
  00334	48 8b 44 24 40	 mov	 rax, QWORD PTR vm$[rsp]
  00339	44 8b 80 68 18
	00 00		 mov	 r8d, DWORD PTR [rax+6248]
  00340	48 8b 54 24 48	 mov	 rdx, QWORD PTR list$[rsp]
  00345	48 8b 44 24 40	 mov	 rax, QWORD PTR vm$[rsp]
  0034a	48 8b 88 50 19
	00 00		 mov	 rcx, QWORD PTR [rax+6480]
  00351	e8 00 00 00 00	 call	 simple_list_addint_gc
; Line 186
  00356	48 8b 44 24 40	 mov	 rax, QWORD PTR vm$[rsp]
  0035b	0f be 80 49 19
	00 00		 movsx	 eax, BYTE PTR [rax+6473]
  00362	44 8b c0	 mov	 r8d, eax
  00365	48 8b 54 24 48	 mov	 rdx, QWORD PTR list$[rsp]
  0036a	48 8b 44 24 40	 mov	 rax, QWORD PTR vm$[rsp]
  0036f	48 8b 88 50 19
	00 00		 mov	 rcx, QWORD PTR [rax+6480]
  00376	e8 00 00 00 00	 call	 simple_list_addint_gc
; Line 187
  0037b	48 8b 44 24 40	 mov	 rax, QWORD PTR vm$[rsp]
  00380	0f be 80 4a 19
	00 00		 movsx	 eax, BYTE PTR [rax+6474]
  00387	44 8b c0	 mov	 r8d, eax
  0038a	48 8b 54 24 48	 mov	 rdx, QWORD PTR list$[rsp]
  0038f	48 8b 44 24 40	 mov	 rax, QWORD PTR vm$[rsp]
  00394	48 8b 88 50 19
	00 00		 mov	 rcx, QWORD PTR [rax+6480]
  0039b	e8 00 00 00 00	 call	 simple_list_addint_gc
; Line 188
  003a0	48 8b 44 24 40	 mov	 rax, QWORD PTR vm$[rsp]
  003a5	0f be 80 11 19
	00 00		 movsx	 eax, BYTE PTR [rax+6417]
  003ac	44 8b c0	 mov	 r8d, eax
  003af	48 8b 54 24 48	 mov	 rdx, QWORD PTR list$[rsp]
  003b4	48 8b 44 24 40	 mov	 rax, QWORD PTR vm$[rsp]
  003b9	48 8b 88 50 19
	00 00		 mov	 rcx, QWORD PTR [rax+6480]
  003c0	e8 00 00 00 00	 call	 simple_list_addint_gc
; Line 189
  003c5	48 8b 44 24 40	 mov	 rax, QWORD PTR vm$[rsp]
  003ca	0f be 80 20 19
	00 00		 movsx	 eax, BYTE PTR [rax+6432]
  003d1	44 8b c0	 mov	 r8d, eax
  003d4	48 8b 54 24 48	 mov	 rdx, QWORD PTR list$[rsp]
  003d9	48 8b 44 24 40	 mov	 rax, QWORD PTR vm$[rsp]
  003de	48 8b 88 50 19
	00 00		 mov	 rcx, QWORD PTR [rax+6480]
  003e5	e8 00 00 00 00	 call	 simple_list_addint_gc
; Line 190
  003ea	48 8b 44 24 40	 mov	 rax, QWORD PTR vm$[rsp]
  003ef	4c 8b 80 18 19
	00 00		 mov	 r8, QWORD PTR [rax+6424]
  003f6	48 8b 54 24 48	 mov	 rdx, QWORD PTR list$[rsp]
  003fb	48 8b 44 24 40	 mov	 rax, QWORD PTR vm$[rsp]
  00400	48 8b 88 50 19
	00 00		 mov	 rcx, QWORD PTR [rax+6480]
  00407	e8 00 00 00 00	 call	 simple_list_addpointer_gc
; Line 191
  0040c	48 8b 44 24 40	 mov	 rax, QWORD PTR vm$[rsp]
  00411	4c 8b 80 58 19
	00 00		 mov	 r8, QWORD PTR [rax+6488]
  00418	48 8b 54 24 48	 mov	 rdx, QWORD PTR list$[rsp]
  0041d	48 8b 44 24 40	 mov	 rax, QWORD PTR vm$[rsp]
  00422	48 8b 88 50 19
	00 00		 mov	 rcx, QWORD PTR [rax+6480]
  00429	e8 00 00 00 00	 call	 simple_list_addpointer_gc
; Line 192
  0042e	48 8b 44 24 40	 mov	 rax, QWORD PTR vm$[rsp]
  00433	48 8b 80 68 19
	00 00		 mov	 rax, QWORD PTR [rax+6504]
  0043a	44 8b 40 10	 mov	 r8d, DWORD PTR [rax+16]
  0043e	48 8b 54 24 48	 mov	 rdx, QWORD PTR list$[rsp]
  00443	48 8b 44 24 40	 mov	 rax, QWORD PTR vm$[rsp]
  00448	48 8b 88 50 19
	00 00		 mov	 rcx, QWORD PTR [rax+6480]
  0044f	e8 00 00 00 00	 call	 simple_list_addint_gc
; Line 194
  00454	48 8b 4c 24 40	 mov	 rcx, QWORD PTR vm$[rsp]
  00459	e8 00 00 00 00	 call	 simple_vm_getglobalscope
  0045e	ba 0c 00 00 00	 mov	 edx, 12
  00463	48 8b c8	 mov	 rcx, rax
  00466	e8 00 00 00 00	 call	 simple_list_getlist
  0046b	48 89 44 24 20	 mov	 QWORD PTR pThis$[rsp], rax
; Line 195
  00470	ba 03 00 00 00	 mov	 edx, 3
  00475	48 8b 4c 24 20	 mov	 rcx, QWORD PTR pThis$[rsp]
  0047a	e8 00 00 00 00	 call	 simple_list_getitem
  0047f	4c 8b 40 08	 mov	 r8, QWORD PTR [rax+8]
  00483	48 8b 54 24 48	 mov	 rdx, QWORD PTR list$[rsp]
  00488	48 8b 44 24 40	 mov	 rax, QWORD PTR vm$[rsp]
  0048d	48 8b 88 50 19
	00 00		 mov	 rcx, QWORD PTR [rax+6480]
  00494	e8 00 00 00 00	 call	 simple_list_addpointer_gc
; Line 196
  00499	ba 04 00 00 00	 mov	 edx, 4
  0049e	48 8b 4c 24 20	 mov	 rcx, QWORD PTR pThis$[rsp]
  004a3	e8 00 00 00 00	 call	 simple_list_getitem
  004a8	44 8b 40 08	 mov	 r8d, DWORD PTR [rax+8]
  004ac	48 8b 54 24 48	 mov	 rdx, QWORD PTR list$[rsp]
  004b1	48 8b 44 24 40	 mov	 rax, QWORD PTR vm$[rsp]
  004b6	48 8b 88 50 19
	00 00		 mov	 rcx, QWORD PTR [rax+6480]
  004bd	e8 00 00 00 00	 call	 simple_list_addint_gc
; Line 197
  004c2	48 8b 44 24 40	 mov	 rax, QWORD PTR vm$[rsp]
  004c7	44 8b 80 18 1a
	00 00		 mov	 r8d, DWORD PTR [rax+6680]
  004ce	48 8b 54 24 48	 mov	 rdx, QWORD PTR list$[rsp]
  004d3	48 8b 44 24 40	 mov	 rax, QWORD PTR vm$[rsp]
  004d8	48 8b 88 50 19
	00 00		 mov	 rcx, QWORD PTR [rax+6480]
  004df	e8 00 00 00 00	 call	 simple_list_addint_gc
; Line 198
  004e4	48 8b 44 24 40	 mov	 rax, QWORD PTR vm$[rsp]
  004e9	c6 80 01 19 00
	00 00		 mov	 BYTE PTR [rax+6401], 0
; Line 199
  004f0	48 8b 44 24 40	 mov	 rax, QWORD PTR vm$[rsp]
  004f5	48 c7 80 30 19
	00 00 00 00 00
	00		 mov	 QWORD PTR [rax+6448], 0
; Line 200
  00500	48 8b 44 24 40	 mov	 rax, QWORD PTR vm$[rsp]
  00505	c6 80 4a 19 00
	00 00		 mov	 BYTE PTR [rax+6474], 0
; Line 201
  0050c	48 83 c4 38	 add	 rsp, 56			; 00000038H
  00510	c3		 ret	 0
simple_vm_savestate2 ENDP
_TEXT	ENDS
; Function compile flags: /Odtp
_TEXT	SEGMENT
y$ = 32
nLimit$ = 36
vm$ = 64
x$ = 72
list$ = 80
simple_vm_backstate PROC
; File c:\users\thecarisma\documents\simple_github\simple\simple\sources\simple_vmstate.c
; Line 253
$LN7:
  00000	4c 89 44 24 18	 mov	 QWORD PTR [rsp+24], r8
  00005	89 54 24 10	 mov	 DWORD PTR [rsp+16], edx
  00009	48 89 4c 24 08	 mov	 QWORD PTR [rsp+8], rcx
  0000e	48 83 ec 38	 sub	 rsp, 56			; 00000038H
; Line 255
  00012	48 8b 44 24 50	 mov	 rax, QWORD PTR list$[rsp]
  00017	8b 40 10	 mov	 eax, DWORD PTR [rax+16]
  0001a	39 44 24 48	 cmp	 DWORD PTR x$[rsp], eax
  0001e	7d 4d		 jge	 SHORT $LN4@simple_vm_
; Line 256
  00020	48 8b 44 24 50	 mov	 rax, QWORD PTR list$[rsp]
  00025	8b 40 10	 mov	 eax, DWORD PTR [rax+16]
  00028	89 44 24 24	 mov	 DWORD PTR nLimit$[rsp], eax
; Line 257
  0002c	8b 44 24 48	 mov	 eax, DWORD PTR x$[rsp]
  00030	ff c0		 inc	 eax
  00032	89 44 24 20	 mov	 DWORD PTR y$[rsp], eax
  00036	eb 0a		 jmp	 SHORT $LN3@simple_vm_
$LN2@simple_vm_:
  00038	8b 44 24 20	 mov	 eax, DWORD PTR y$[rsp]
  0003c	ff c0		 inc	 eax
  0003e	89 44 24 20	 mov	 DWORD PTR y$[rsp], eax
$LN3@simple_vm_:
  00042	8b 44 24 24	 mov	 eax, DWORD PTR nLimit$[rsp]
  00046	39 44 24 20	 cmp	 DWORD PTR y$[rsp], eax
  0004a	7f 21		 jg	 SHORT $LN1@simple_vm_
; Line 258
  0004c	48 8b 44 24 50	 mov	 rax, QWORD PTR list$[rsp]
  00051	44 8b 40 10	 mov	 r8d, DWORD PTR [rax+16]
  00055	48 8b 54 24 50	 mov	 rdx, QWORD PTR list$[rsp]
  0005a	48 8b 44 24 40	 mov	 rax, QWORD PTR vm$[rsp]
  0005f	48 8b 88 50 19
	00 00		 mov	 rcx, QWORD PTR [rax+6480]
  00066	e8 00 00 00 00	 call	 simple_list_deleteitem_gc
; Line 259
  0006b	eb cb		 jmp	 SHORT $LN2@simple_vm_
$LN1@simple_vm_:
$LN4@simple_vm_:
; Line 261
  0006d	48 83 c4 38	 add	 rsp, 56			; 00000038H
  00071	c3		 ret	 0
simple_vm_backstate ENDP
_TEXT	ENDS
; Function compile flags: /Odtp
_TEXT	SEGMENT
pThis$ = 32
vm$ = 64
list$ = 72
nPos$ = 80
nFlag$ = 88
simple_vm_restorestate PROC
; File c:\users\thecarisma\documents\simple_github\simple\simple\sources\simple_vmstate.c
; Line 69
$LN11:
  00000	44 89 4c 24 20	 mov	 DWORD PTR [rsp+32], r9d
  00005	44 89 44 24 18	 mov	 DWORD PTR [rsp+24], r8d
  0000a	48 89 54 24 10	 mov	 QWORD PTR [rsp+16], rdx
  0000f	48 89 4c 24 08	 mov	 QWORD PTR [rsp+8], rcx
  00014	48 83 ec 38	 sub	 rsp, 56			; 00000038H
; Line 71
  00018	8b 54 24 50	 mov	 edx, DWORD PTR nPos$[rsp]
  0001c	48 8b 4c 24 48	 mov	 rcx, QWORD PTR list$[rsp]
  00021	e8 00 00 00 00	 call	 simple_list_getlist
  00026	48 89 44 24 48	 mov	 QWORD PTR list$[rsp], rax
; Line 73
  0002b	ba 13 00 00 00	 mov	 edx, 19
  00030	48 8b 4c 24 48	 mov	 rcx, QWORD PTR list$[rsp]
  00035	e8 00 00 00 00	 call	 simple_list_getitem
  0003a	48 8b 4c 24 40	 mov	 rcx, QWORD PTR vm$[rsp]
  0003f	48 8b 40 08	 mov	 rax, QWORD PTR [rax+8]
  00043	48 89 81 40 18
	00 00		 mov	 QWORD PTR [rcx+6208], rax
; Line 80
  0004a	48 8b 44 24 40	 mov	 rax, QWORD PTR vm$[rsp]
  0004f	0f be 80 01 19
	00 00		 movsx	 eax, BYTE PTR [rax+6401]
  00056	85 c0		 test	 eax, eax
  00058	75 3a		 jne	 SHORT $LN8@simple_vm_
$LN7@simple_vm_:
; Line 81
  0005a	48 8b 44 24 40	 mov	 rax, QWORD PTR vm$[rsp]
  0005f	48 8b 80 38 18
	00 00		 mov	 rax, QWORD PTR [rax+6200]
  00066	8b 50 10	 mov	 edx, DWORD PTR [rax+16]
  00069	48 8b 44 24 40	 mov	 rax, QWORD PTR vm$[rsp]
  0006e	48 8b 88 38 18
	00 00		 mov	 rcx, QWORD PTR [rax+6200]
  00075	e8 00 00 00 00	 call	 simple_list_getlist
  0007a	48 8b 4c 24 40	 mov	 rcx, QWORD PTR vm$[rsp]
  0007f	48 3b 81 40 18
	00 00		 cmp	 rax, QWORD PTR [rcx+6208]
  00086	74 0c		 je	 SHORT $LN6@simple_vm_
; Line 82
  00088	48 8b 4c 24 40	 mov	 rcx, QWORD PTR vm$[rsp]
  0008d	e8 00 00 00 00	 call	 simple_vm_deletescope
; Line 83
  00092	eb c6		 jmp	 SHORT $LN7@simple_vm_
$LN6@simple_vm_:
$LN8@simple_vm_:
; Line 86
  00094	ba 02 00 00 00	 mov	 edx, 2
  00099	48 8b 4c 24 48	 mov	 rcx, QWORD PTR list$[rsp]
  0009e	e8 00 00 00 00	 call	 simple_list_getitem
  000a3	48 8b 4c 24 40	 mov	 rcx, QWORD PTR vm$[rsp]
  000a8	4c 8b 81 88 18
	00 00		 mov	 r8, QWORD PTR [rcx+6280]
  000af	8b 50 08	 mov	 edx, DWORD PTR [rax+8]
  000b2	48 8b 4c 24 40	 mov	 rcx, QWORD PTR vm$[rsp]
  000b7	e8 00 00 00 00	 call	 simple_vm_backstate
; Line 88
  000bc	ba 03 00 00 00	 mov	 edx, 3
  000c1	48 8b 4c 24 48	 mov	 rcx, QWORD PTR list$[rsp]
  000c6	e8 00 00 00 00	 call	 simple_list_getitem
  000cb	48 8b 4c 24 40	 mov	 rcx, QWORD PTR vm$[rsp]
  000d0	8b 40 08	 mov	 eax, DWORD PTR [rax+8]
  000d3	89 81 94 18 00
	00		 mov	 DWORD PTR [rcx+6292], eax
; Line 89
  000d9	ba 04 00 00 00	 mov	 edx, 4
  000de	48 8b 4c 24 48	 mov	 rcx, QWORD PTR list$[rsp]
  000e3	e8 00 00 00 00	 call	 simple_list_getitem
  000e8	48 8b 4c 24 40	 mov	 rcx, QWORD PTR vm$[rsp]
  000ed	0f b6 40 08	 movzx	 eax, BYTE PTR [rax+8]
  000f1	88 81 30 18 00
	00		 mov	 BYTE PTR [rcx+6192], al
; Line 90
  000f7	ba 05 00 00 00	 mov	 edx, 5
  000fc	48 8b 4c 24 48	 mov	 rcx, QWORD PTR list$[rsp]
  00101	e8 00 00 00 00	 call	 simple_list_getitem
  00106	48 8b 4c 24 40	 mov	 rcx, QWORD PTR vm$[rsp]
  0010b	8b 40 08	 mov	 eax, DWORD PTR [rax+8]
  0010e	89 81 90 18 00
	00		 mov	 DWORD PTR [rcx+6288], eax
; Line 92
  00114	ba 06 00 00 00	 mov	 edx, 6
  00119	48 8b 4c 24 48	 mov	 rcx, QWORD PTR list$[rsp]
  0011e	e8 00 00 00 00	 call	 simple_list_getitem
  00123	48 8b 4c 24 40	 mov	 rcx, QWORD PTR vm$[rsp]
  00128	4c 8b 81 d0 18
	00 00		 mov	 r8, QWORD PTR [rcx+6352]
  0012f	8b 50 08	 mov	 edx, DWORD PTR [rax+8]
  00132	48 8b 4c 24 40	 mov	 rcx, QWORD PTR vm$[rsp]
  00137	e8 00 00 00 00	 call	 simple_vm_backstate
; Line 93
  0013c	ba 07 00 00 00	 mov	 edx, 7
  00141	48 8b 4c 24 48	 mov	 rcx, QWORD PTR list$[rsp]
  00146	e8 00 00 00 00	 call	 simple_list_getitem
  0014b	48 8b 4c 24 40	 mov	 rcx, QWORD PTR vm$[rsp]
  00150	4c 8b 81 e0 18
	00 00		 mov	 r8, QWORD PTR [rcx+6368]
  00157	8b 50 08	 mov	 edx, DWORD PTR [rax+8]
  0015a	48 8b 4c 24 40	 mov	 rcx, QWORD PTR vm$[rsp]
  0015f	e8 00 00 00 00	 call	 simple_vm_backstate
; Line 94
  00164	ba 08 00 00 00	 mov	 edx, 8
  00169	48 8b 4c 24 48	 mov	 rcx, QWORD PTR list$[rsp]
  0016e	e8 00 00 00 00	 call	 simple_list_getitem
  00173	48 8b 4c 24 40	 mov	 rcx, QWORD PTR vm$[rsp]
  00178	48 8b 40 08	 mov	 rax, QWORD PTR [rax+8]
  0017c	48 89 81 d8 18
	00 00		 mov	 QWORD PTR [rcx+6360], rax
; Line 96
  00183	ba 09 00 00 00	 mov	 edx, 9
  00188	48 8b 4c 24 48	 mov	 rcx, QWORD PTR list$[rsp]
  0018d	e8 00 00 00 00	 call	 simple_list_getitem
  00192	48 8b 4c 24 40	 mov	 rcx, QWORD PTR vm$[rsp]
  00197	48 8b 40 08	 mov	 rax, QWORD PTR [rax+8]
  0019b	48 89 81 60 18
	00 00		 mov	 QWORD PTR [rcx+6240], rax
; Line 98
  001a2	ba 19 00 00 00	 mov	 edx, 25
  001a7	48 8b 4c 24 48	 mov	 rcx, QWORD PTR list$[rsp]
  001ac	e8 00 00 00 00	 call	 simple_list_getitem
  001b1	48 8b 4c 24 40	 mov	 rcx, QWORD PTR vm$[rsp]
  001b6	48 8b 89 80 18
	00 00		 mov	 rcx, QWORD PTR [rcx+6272]
  001bd	48 39 48 08	 cmp	 QWORD PTR [rax+8], rcx
  001c1	74 48		 je	 SHORT $LN5@simple_vm_
; Line 99
  001c3	48 8b 44 24 40	 mov	 rax, QWORD PTR vm$[rsp]
  001c8	48 8b 90 80 18
	00 00		 mov	 rdx, QWORD PTR [rax+6272]
  001cf	48 8b 44 24 40	 mov	 rax, QWORD PTR vm$[rsp]
  001d4	48 8b 88 50 19
	00 00		 mov	 rcx, QWORD PTR [rax+6480]
  001db	e8 00 00 00 00	 call	 simple_list_delete_gc
  001e0	48 8b 4c 24 40	 mov	 rcx, QWORD PTR vm$[rsp]
  001e5	48 89 81 80 18
	00 00		 mov	 QWORD PTR [rcx+6272], rax
; Line 100
  001ec	ba 19 00 00 00	 mov	 edx, 25
  001f1	48 8b 4c 24 48	 mov	 rcx, QWORD PTR list$[rsp]
  001f6	e8 00 00 00 00	 call	 simple_list_getitem
  001fb	48 8b 4c 24 40	 mov	 rcx, QWORD PTR vm$[rsp]
  00200	48 8b 40 08	 mov	 rax, QWORD PTR [rax+8]
  00204	48 89 81 80 18
	00 00		 mov	 QWORD PTR [rcx+6272], rax
$LN5@simple_vm_:
; Line 102
  0020b	ba 0a 00 00 00	 mov	 edx, 10
  00210	48 8b 4c 24 48	 mov	 rcx, QWORD PTR list$[rsp]
  00215	e8 00 00 00 00	 call	 simple_list_getitem
  0021a	48 8b 4c 24 40	 mov	 rcx, QWORD PTR vm$[rsp]
  0021f	4c 8b 81 80 18
	00 00		 mov	 r8, QWORD PTR [rcx+6272]
  00226	8b 50 08	 mov	 edx, DWORD PTR [rax+8]
  00229	48 8b 4c 24 40	 mov	 rcx, QWORD PTR vm$[rsp]
  0022e	e8 00 00 00 00	 call	 simple_vm_backstate
; Line 103
  00233	ba 0b 00 00 00	 mov	 edx, 11
  00238	48 8b 4c 24 48	 mov	 rcx, QWORD PTR list$[rsp]
  0023d	e8 00 00 00 00	 call	 simple_list_getitem
  00242	48 8b 4c 24 40	 mov	 rcx, QWORD PTR vm$[rsp]
  00247	8b 40 08	 mov	 eax, DWORD PTR [rax+8]
  0024a	89 81 78 18 00
	00		 mov	 DWORD PTR [rcx+6264], eax
; Line 104
  00250	ba 0c 00 00 00	 mov	 edx, 12
  00255	48 8b 4c 24 48	 mov	 rcx, QWORD PTR list$[rsp]
  0025a	e8 00 00 00 00	 call	 simple_list_getitem
  0025f	48 8b 4c 24 40	 mov	 rcx, QWORD PTR vm$[rsp]
  00264	4c 8b 81 c0 18
	00 00		 mov	 r8, QWORD PTR [rcx+6336]
  0026b	8b 50 08	 mov	 edx, DWORD PTR [rax+8]
  0026e	48 8b 4c 24 40	 mov	 rcx, QWORD PTR vm$[rsp]
  00273	e8 00 00 00 00	 call	 simple_vm_backstate
; Line 105
  00278	ba 0d 00 00 00	 mov	 edx, 13
  0027d	48 8b 4c 24 48	 mov	 rcx, QWORD PTR list$[rsp]
  00282	e8 00 00 00 00	 call	 simple_list_getitem
  00287	48 8b 4c 24 40	 mov	 rcx, QWORD PTR vm$[rsp]
  0028c	4c 8b 81 08 19
	00 00		 mov	 r8, QWORD PTR [rcx+6408]
  00293	8b 50 08	 mov	 edx, DWORD PTR [rax+8]
  00296	48 8b 4c 24 40	 mov	 rcx, QWORD PTR vm$[rsp]
  0029b	e8 00 00 00 00	 call	 simple_vm_backstate
; Line 106
  002a0	ba 0e 00 00 00	 mov	 edx, 14
  002a5	48 8b 4c 24 48	 mov	 rcx, QWORD PTR list$[rsp]
  002aa	e8 00 00 00 00	 call	 simple_list_getitem
  002af	48 8b 4c 24 40	 mov	 rcx, QWORD PTR vm$[rsp]
  002b4	4c 8b 81 f0 18
	00 00		 mov	 r8, QWORD PTR [rcx+6384]
  002bb	8b 50 08	 mov	 edx, DWORD PTR [rax+8]
  002be	48 8b 4c 24 40	 mov	 rcx, QWORD PTR vm$[rsp]
  002c3	e8 00 00 00 00	 call	 simple_vm_backstate
; Line 107
  002c8	ba 0f 00 00 00	 mov	 edx, 15
  002cd	48 8b 4c 24 48	 mov	 rcx, QWORD PTR list$[rsp]
  002d2	e8 00 00 00 00	 call	 simple_list_getitem
  002d7	48 8b 4c 24 40	 mov	 rcx, QWORD PTR vm$[rsp]
  002dc	8b 40 08	 mov	 eax, DWORD PTR [rax+8]
  002df	89 81 f8 18 00
	00		 mov	 DWORD PTR [rcx+6392], eax
; Line 109
  002e5	83 7c 24 58 02	 cmp	 DWORD PTR nFlag$[rsp], 2
  002ea	74 78		 je	 SHORT $LN4@simple_vm_
; Line 110
  002ec	ba 10 00 00 00	 mov	 edx, 16
  002f1	48 8b 4c 24 48	 mov	 rcx, QWORD PTR list$[rsp]
  002f6	e8 00 00 00 00	 call	 simple_list_getitem
  002fb	48 8b 4c 24 40	 mov	 rcx, QWORD PTR vm$[rsp]
  00300	4c 8b 81 a0 18
	00 00		 mov	 r8, QWORD PTR [rcx+6304]
  00307	8b 50 08	 mov	 edx, DWORD PTR [rax+8]
  0030a	48 8b 4c 24 40	 mov	 rcx, QWORD PTR vm$[rsp]
  0030f	e8 00 00 00 00	 call	 simple_vm_backstate
; Line 111
  00314	ba 11 00 00 00	 mov	 edx, 17
  00319	48 8b 4c 24 48	 mov	 rcx, QWORD PTR list$[rsp]
  0031e	e8 00 00 00 00	 call	 simple_list_getitem
  00323	48 8b 4c 24 40	 mov	 rcx, QWORD PTR vm$[rsp]
  00328	4c 8b 81 a8 18
	00 00		 mov	 r8, QWORD PTR [rcx+6312]
  0032f	8b 50 08	 mov	 edx, DWORD PTR [rax+8]
  00332	48 8b 4c 24 40	 mov	 rcx, QWORD PTR vm$[rsp]
  00337	e8 00 00 00 00	 call	 simple_vm_backstate
; Line 113
  0033c	ba 17 00 00 00	 mov	 edx, 23
  00341	48 8b 4c 24 48	 mov	 rcx, QWORD PTR list$[rsp]
  00346	e8 00 00 00 00	 call	 simple_list_getitem
  0034b	48 8b 4c 24 40	 mov	 rcx, QWORD PTR vm$[rsp]
  00350	4c 8b 81 40 19
	00 00		 mov	 r8, QWORD PTR [rcx+6464]
  00357	8b 50 08	 mov	 edx, DWORD PTR [rax+8]
  0035a	48 8b 4c 24 40	 mov	 rcx, QWORD PTR vm$[rsp]
  0035f	e8 00 00 00 00	 call	 simple_vm_backstate
$LN4@simple_vm_:
; Line 116
  00364	83 7c 24 58 01	 cmp	 DWORD PTR nFlag$[rsp], 1
  00369	74 28		 je	 SHORT $LN3@simple_vm_
; Line 117
  0036b	ba 12 00 00 00	 mov	 edx, 18
  00370	48 8b 4c 24 48	 mov	 rcx, QWORD PTR list$[rsp]
  00375	e8 00 00 00 00	 call	 simple_list_getitem
  0037a	48 8b 4c 24 40	 mov	 rcx, QWORD PTR vm$[rsp]
  0037f	4c 8b 81 b8 18
	00 00		 mov	 r8, QWORD PTR [rcx+6328]
  00386	8b 50 08	 mov	 edx, DWORD PTR [rax+8]
  00389	48 8b 4c 24 40	 mov	 rcx, QWORD PTR vm$[rsp]
  0038e	e8 00 00 00 00	 call	 simple_vm_backstate
$LN3@simple_vm_:
; Line 120
  00393	ba 14 00 00 00	 mov	 edx, 20
  00398	48 8b 4c 24 48	 mov	 rcx, QWORD PTR list$[rsp]
  0039d	e8 00 00 00 00	 call	 simple_list_getitem
  003a2	48 8b 4c 24 40	 mov	 rcx, QWORD PTR vm$[rsp]
  003a7	8b 40 08	 mov	 eax, DWORD PTR [rax+8]
  003aa	89 81 6c 18 00
	00		 mov	 DWORD PTR [rcx+6252], eax
; Line 121
  003b0	ba 15 00 00 00	 mov	 edx, 21
  003b5	48 8b 4c 24 48	 mov	 rcx, QWORD PTR list$[rsp]
  003ba	e8 00 00 00 00	 call	 simple_list_getitem
  003bf	48 8b 4c 24 40	 mov	 rcx, QWORD PTR vm$[rsp]
  003c4	48 8b 89 70 18
	00 00		 mov	 rcx, QWORD PTR [rcx+6256]
  003cb	48 39 48 08	 cmp	 QWORD PTR [rax+8], rcx
  003cf	74 48		 je	 SHORT $LN2@simple_vm_
; Line 122
  003d1	48 8b 44 24 40	 mov	 rax, QWORD PTR vm$[rsp]
  003d6	48 8b 90 70 18
	00 00		 mov	 rdx, QWORD PTR [rax+6256]
  003dd	48 8b 44 24 40	 mov	 rax, QWORD PTR vm$[rsp]
  003e2	48 8b 88 50 19
	00 00		 mov	 rcx, QWORD PTR [rax+6480]
  003e9	e8 00 00 00 00	 call	 simple_list_delete_gc
  003ee	48 8b 4c 24 40	 mov	 rcx, QWORD PTR vm$[rsp]
  003f3	48 89 81 70 18
	00 00		 mov	 QWORD PTR [rcx+6256], rax
; Line 123
  003fa	ba 15 00 00 00	 mov	 edx, 21
  003ff	48 8b 4c 24 48	 mov	 rcx, QWORD PTR list$[rsp]
  00404	e8 00 00 00 00	 call	 simple_list_getitem
  00409	48 8b 4c 24 40	 mov	 rcx, QWORD PTR vm$[rsp]
  0040e	48 8b 40 08	 mov	 rax, QWORD PTR [rax+8]
  00412	48 89 81 70 18
	00 00		 mov	 QWORD PTR [rcx+6256], rax
$LN2@simple_vm_:
; Line 125
  00419	ba 16 00 00 00	 mov	 edx, 22
  0041e	48 8b 4c 24 48	 mov	 rcx, QWORD PTR list$[rsp]
  00423	e8 00 00 00 00	 call	 simple_list_getitem
  00428	48 8b 4c 24 40	 mov	 rcx, QWORD PTR vm$[rsp]
  0042d	0f b6 40 08	 movzx	 eax, BYTE PTR [rax+8]
  00431	88 81 00 19 00
	00		 mov	 BYTE PTR [rcx+6400], al
; Line 126
  00437	ba 18 00 00 00	 mov	 edx, 24
  0043c	48 8b 4c 24 48	 mov	 rcx, QWORD PTR list$[rsp]
  00441	e8 00 00 00 00	 call	 simple_list_getitem
  00446	48 8b 4c 24 40	 mov	 rcx, QWORD PTR vm$[rsp]
  0044b	4c 8b 81 60 19
	00 00		 mov	 r8, QWORD PTR [rcx+6496]
  00452	8b 50 08	 mov	 edx, DWORD PTR [rax+8]
  00455	48 8b 4c 24 40	 mov	 rcx, QWORD PTR vm$[rsp]
  0045a	e8 00 00 00 00	 call	 simple_vm_backstate
; Line 128
  0045f	48 8b 44 24 40	 mov	 rax, QWORD PTR vm$[rsp]
  00464	48 8b 80 e0 18
	00 00		 mov	 rax, QWORD PTR [rax+6368]
  0046b	83 78 10 00	 cmp	 DWORD PTR [rax+16], 0
  0046f	7e 3b		 jle	 SHORT $LN1@simple_vm_
; Line 129
  00471	48 8b 44 24 40	 mov	 rax, QWORD PTR vm$[rsp]
  00476	48 8b 80 e0 18
	00 00		 mov	 rax, QWORD PTR [rax+6368]
  0047d	8b 50 10	 mov	 edx, DWORD PTR [rax+16]
  00480	48 8b 44 24 40	 mov	 rax, QWORD PTR vm$[rsp]
  00485	48 8b 88 e0 18
	00 00		 mov	 rcx, QWORD PTR [rax+6368]
  0048c	e8 00 00 00 00	 call	 simple_list_getlist
  00491	ba 01 00 00 00	 mov	 edx, 1
  00496	48 8b c8	 mov	 rcx, rax
  00499	e8 00 00 00 00	 call	 simple_list_getitem
  0049e	48 8b 50 08	 mov	 rdx, QWORD PTR [rax+8]
  004a2	48 8b 4c 24 40	 mov	 rcx, QWORD PTR vm$[rsp]
  004a7	e8 00 00 00 00	 call	 simple_vm_oop_updateselfpointer2
$LN1@simple_vm_:
; Line 131
  004ac	ba 1a 00 00 00	 mov	 edx, 26
  004b1	48 8b 4c 24 48	 mov	 rcx, QWORD PTR list$[rsp]
  004b6	e8 00 00 00 00	 call	 simple_list_getitem
  004bb	48 8b 4c 24 40	 mov	 rcx, QWORD PTR vm$[rsp]
  004c0	8b 40 08	 mov	 eax, DWORD PTR [rax+8]
  004c3	89 81 68 18 00
	00		 mov	 DWORD PTR [rcx+6248], eax
; Line 132
  004c9	ba 1b 00 00 00	 mov	 edx, 27
  004ce	48 8b 4c 24 48	 mov	 rcx, QWORD PTR list$[rsp]
  004d3	e8 00 00 00 00	 call	 simple_list_getitem
  004d8	48 8b 4c 24 40	 mov	 rcx, QWORD PTR vm$[rsp]
  004dd	0f b6 40 08	 movzx	 eax, BYTE PTR [rax+8]
  004e1	88 81 01 19 00
	00		 mov	 BYTE PTR [rcx+6401], al
; Line 133
  004e7	ba 1c 00 00 00	 mov	 edx, 28
  004ec	48 8b 4c 24 48	 mov	 rcx, QWORD PTR list$[rsp]
  004f1	e8 00 00 00 00	 call	 simple_list_getitem
  004f6	48 8b 4c 24 40	 mov	 rcx, QWORD PTR vm$[rsp]
  004fb	0f b6 40 08	 movzx	 eax, BYTE PTR [rax+8]
  004ff	88 81 10 19 00
	00		 mov	 BYTE PTR [rcx+6416], al
; Line 134
  00505	ba 1d 00 00 00	 mov	 edx, 29
  0050a	48 8b 4c 24 48	 mov	 rcx, QWORD PTR list$[rsp]
  0050f	e8 00 00 00 00	 call	 simple_list_getitem
  00514	48 8b 4c 24 40	 mov	 rcx, QWORD PTR vm$[rsp]
  00519	0f b6 40 08	 movzx	 eax, BYTE PTR [rax+8]
  0051d	88 81 11 19 00
	00		 mov	 BYTE PTR [rcx+6417], al
; Line 135
  00523	ba 1e 00 00 00	 mov	 edx, 30
  00528	48 8b 4c 24 48	 mov	 rcx, QWORD PTR list$[rsp]
  0052d	e8 00 00 00 00	 call	 simple_list_getitem
  00532	48 8b 4c 24 40	 mov	 rcx, QWORD PTR vm$[rsp]
  00537	48 8b 40 08	 mov	 rax, QWORD PTR [rax+8]
  0053b	48 89 81 18 19
	00 00		 mov	 QWORD PTR [rcx+6424], rax
; Line 136
  00542	ba 1f 00 00 00	 mov	 edx, 31
  00547	48 8b 4c 24 48	 mov	 rcx, QWORD PTR list$[rsp]
  0054c	e8 00 00 00 00	 call	 simple_list_getitem
  00551	48 8b 4c 24 40	 mov	 rcx, QWORD PTR vm$[rsp]
  00556	0f b6 40 08	 movzx	 eax, BYTE PTR [rax+8]
  0055a	88 81 20 19 00
	00		 mov	 BYTE PTR [rcx+6432], al
; Line 137
  00560	ba 20 00 00 00	 mov	 edx, 32			; 00000020H
  00565	48 8b 4c 24 48	 mov	 rcx, QWORD PTR list$[rsp]
  0056a	e8 00 00 00 00	 call	 simple_list_getitem
  0056f	48 8b 4c 24 40	 mov	 rcx, QWORD PTR vm$[rsp]
  00574	48 8b 40 08	 mov	 rax, QWORD PTR [rax+8]
  00578	48 89 81 30 19
	00 00		 mov	 QWORD PTR [rcx+6448], rax
; Line 138
  0057f	ba 21 00 00 00	 mov	 edx, 33			; 00000021H
  00584	48 8b 4c 24 48	 mov	 rcx, QWORD PTR list$[rsp]
  00589	e8 00 00 00 00	 call	 simple_list_getitem
  0058e	48 8b 4c 24 40	 mov	 rcx, QWORD PTR vm$[rsp]
  00593	0f b6 40 08	 movzx	 eax, BYTE PTR [rax+8]
  00597	88 81 49 19 00
	00		 mov	 BYTE PTR [rcx+6473], al
; Line 139
  0059d	ba 22 00 00 00	 mov	 edx, 34			; 00000022H
  005a2	48 8b 4c 24 48	 mov	 rcx, QWORD PTR list$[rsp]
  005a7	e8 00 00 00 00	 call	 simple_list_getitem
  005ac	48 8b 4c 24 40	 mov	 rcx, QWORD PTR vm$[rsp]
  005b1	0f b6 40 08	 movzx	 eax, BYTE PTR [rax+8]
  005b5	88 81 4a 19 00
	00		 mov	 BYTE PTR [rcx+6474], al
; Line 140
  005bb	ba 23 00 00 00	 mov	 edx, 35			; 00000023H
  005c0	48 8b 4c 24 48	 mov	 rcx, QWORD PTR list$[rsp]
  005c5	e8 00 00 00 00	 call	 simple_list_getitem
  005ca	48 8b 4c 24 40	 mov	 rcx, QWORD PTR vm$[rsp]
  005cf	8b 40 08	 mov	 eax, DWORD PTR [rax+8]
  005d2	89 81 70 19 00
	00		 mov	 DWORD PTR [rcx+6512], eax
; Line 141
  005d8	ba 24 00 00 00	 mov	 edx, 36			; 00000024H
  005dd	48 8b 4c 24 48	 mov	 rcx, QWORD PTR list$[rsp]
  005e2	e8 00 00 00 00	 call	 simple_list_getitem
  005e7	48 8b 4c 24 40	 mov	 rcx, QWORD PTR vm$[rsp]
  005ec	0f b6 40 08	 movzx	 eax, BYTE PTR [rax+8]
  005f0	88 81 b9 19 00
	00		 mov	 BYTE PTR [rcx+6585], al
; Line 142
  005f6	ba 25 00 00 00	 mov	 edx, 37			; 00000025H
  005fb	48 8b 4c 24 48	 mov	 rcx, QWORD PTR list$[rsp]
  00600	e8 00 00 00 00	 call	 simple_list_getitem
  00605	48 8b 4c 24 40	 mov	 rcx, QWORD PTR vm$[rsp]
  0060a	48 8b 40 08	 mov	 rax, QWORD PTR [rax+8]
  0060e	48 89 81 58 19
	00 00		 mov	 QWORD PTR [rcx+6488], rax
; Line 143
  00615	ba 26 00 00 00	 mov	 edx, 38			; 00000026H
  0061a	48 8b 4c 24 48	 mov	 rcx, QWORD PTR list$[rsp]
  0061f	e8 00 00 00 00	 call	 simple_list_getitem
  00624	48 8b 4c 24 40	 mov	 rcx, QWORD PTR vm$[rsp]
  00629	4c 8b 81 68 19
	00 00		 mov	 r8, QWORD PTR [rcx+6504]
  00630	8b 50 08	 mov	 edx, DWORD PTR [rax+8]
  00633	48 8b 4c 24 40	 mov	 rcx, QWORD PTR vm$[rsp]
  00638	e8 00 00 00 00	 call	 simple_vm_backstate
; Line 145
  0063d	ba 29 00 00 00	 mov	 edx, 41			; 00000029H
  00642	48 8b 4c 24 48	 mov	 rcx, QWORD PTR list$[rsp]
  00647	e8 00 00 00 00	 call	 simple_list_getitem
  0064c	48 8b 4c 24 40	 mov	 rcx, QWORD PTR vm$[rsp]
  00651	8b 40 08	 mov	 eax, DWORD PTR [rax+8]
  00654	89 81 18 1a 00
	00		 mov	 DWORD PTR [rcx+6680], eax
; Line 147
  0065a	48 8b 4c 24 40	 mov	 rcx, QWORD PTR vm$[rsp]
  0065f	e8 00 00 00 00	 call	 simple_vm_getglobalscope
  00664	ba 0c 00 00 00	 mov	 edx, 12
  00669	48 8b c8	 mov	 rcx, rax
  0066c	e8 00 00 00 00	 call	 simple_list_getlist
  00671	48 89 44 24 20	 mov	 QWORD PTR pThis$[rsp], rax
; Line 148
  00676	ba 27 00 00 00	 mov	 edx, 39			; 00000027H
  0067b	48 8b 4c 24 48	 mov	 rcx, QWORD PTR list$[rsp]
  00680	e8 00 00 00 00	 call	 simple_list_getitem
  00685	4c 8b 48 08	 mov	 r9, QWORD PTR [rax+8]
  00689	41 b8 03 00 00
	00		 mov	 r8d, 3
  0068f	48 8b 54 24 20	 mov	 rdx, QWORD PTR pThis$[rsp]
  00694	48 8b 44 24 40	 mov	 rax, QWORD PTR vm$[rsp]
  00699	48 8b 88 50 19
	00 00		 mov	 rcx, QWORD PTR [rax+6480]
  006a0	e8 00 00 00 00	 call	 simple_list_setpointer_gc
; Line 149
  006a5	ba 28 00 00 00	 mov	 edx, 40			; 00000028H
  006aa	48 8b 4c 24 48	 mov	 rcx, QWORD PTR list$[rsp]
  006af	e8 00 00 00 00	 call	 simple_list_getitem
  006b4	44 8b 48 08	 mov	 r9d, DWORD PTR [rax+8]
  006b8	41 b8 04 00 00
	00		 mov	 r8d, 4
  006be	48 8b 54 24 20	 mov	 rdx, QWORD PTR pThis$[rsp]
  006c3	48 8b 44 24 40	 mov	 rax, QWORD PTR vm$[rsp]
  006c8	48 8b 88 50 19
	00 00		 mov	 rcx, QWORD PTR [rax+6480]
  006cf	e8 00 00 00 00	 call	 simple_list_setint_gc
; Line 150
  006d4	48 83 c4 38	 add	 rsp, 56			; 00000038H
  006d8	c3		 ret	 0
simple_vm_restorestate ENDP
_TEXT	ENDS
; Function compile flags: /Odtp
_TEXT	SEGMENT
pThis$ = 32
vm$ = 64
list$ = 72
simple_vm_savestate PROC
; File c:\users\thecarisma\documents\simple_github\simple\simple\sources\simple_vmstate.c
; Line 20
$LN3:
  00000	48 89 54 24 10	 mov	 QWORD PTR [rsp+16], rdx
  00005	48 89 4c 24 08	 mov	 QWORD PTR [rsp+8], rcx
  0000a	48 83 ec 38	 sub	 rsp, 56			; 00000038H
; Line 22
  0000e	48 8b 54 24 48	 mov	 rdx, QWORD PTR list$[rsp]
  00013	48 8b 44 24 40	 mov	 rax, QWORD PTR vm$[rsp]
  00018	48 8b 88 50 19
	00 00		 mov	 rcx, QWORD PTR [rax+6480]
  0001f	e8 00 00 00 00	 call	 simple_list_newlist_gc
  00024	48 89 44 24 48	 mov	 QWORD PTR list$[rsp], rax
; Line 23
  00029	48 8b 44 24 40	 mov	 rax, QWORD PTR vm$[rsp]
  0002e	48 8b 80 38 18
	00 00		 mov	 rax, QWORD PTR [rax+6200]
  00035	44 8b 40 10	 mov	 r8d, DWORD PTR [rax+16]
  00039	48 8b 54 24 48	 mov	 rdx, QWORD PTR list$[rsp]
  0003e	48 8b 44 24 40	 mov	 rax, QWORD PTR vm$[rsp]
  00043	48 8b 88 50 19
	00 00		 mov	 rcx, QWORD PTR [rax+6480]
  0004a	e8 00 00 00 00	 call	 simple_list_addint_gc
; Line 24
  0004f	48 8b 44 24 40	 mov	 rax, QWORD PTR vm$[rsp]
  00054	48 8b 80 88 18
	00 00		 mov	 rax, QWORD PTR [rax+6280]
  0005b	44 8b 40 10	 mov	 r8d, DWORD PTR [rax+16]
  0005f	48 8b 54 24 48	 mov	 rdx, QWORD PTR list$[rsp]
  00064	48 8b 44 24 40	 mov	 rax, QWORD PTR vm$[rsp]
  00069	48 8b 88 50 19
	00 00		 mov	 rcx, QWORD PTR [rax+6480]
  00070	e8 00 00 00 00	 call	 simple_list_addint_gc
; Line 25
  00075	48 8b 44 24 40	 mov	 rax, QWORD PTR vm$[rsp]
  0007a	44 8b 80 94 18
	00 00		 mov	 r8d, DWORD PTR [rax+6292]
  00081	48 8b 54 24 48	 mov	 rdx, QWORD PTR list$[rsp]
  00086	48 8b 44 24 40	 mov	 rax, QWORD PTR vm$[rsp]
  0008b	48 8b 88 50 19
	00 00		 mov	 rcx, QWORD PTR [rax+6480]
  00092	e8 00 00 00 00	 call	 simple_list_addint_gc
; Line 26
  00097	48 8b 44 24 40	 mov	 rax, QWORD PTR vm$[rsp]
  0009c	0f b6 80 30 18
	00 00		 movzx	 eax, BYTE PTR [rax+6192]
  000a3	44 8b c0	 mov	 r8d, eax
  000a6	48 8b 54 24 48	 mov	 rdx, QWORD PTR list$[rsp]
  000ab	48 8b 44 24 40	 mov	 rax, QWORD PTR vm$[rsp]
  000b0	48 8b 88 50 19
	00 00		 mov	 rcx, QWORD PTR [rax+6480]
  000b7	e8 00 00 00 00	 call	 simple_list_addint_gc
; Line 27
  000bc	48 8b 44 24 40	 mov	 rax, QWORD PTR vm$[rsp]
  000c1	44 8b 80 90 18
	00 00		 mov	 r8d, DWORD PTR [rax+6288]
  000c8	48 8b 54 24 48	 mov	 rdx, QWORD PTR list$[rsp]
  000cd	48 8b 44 24 40	 mov	 rax, QWORD PTR vm$[rsp]
  000d2	48 8b 88 50 19
	00 00		 mov	 rcx, QWORD PTR [rax+6480]
  000d9	e8 00 00 00 00	 call	 simple_list_addint_gc
; Line 28
  000de	48 8b 44 24 40	 mov	 rax, QWORD PTR vm$[rsp]
  000e3	48 8b 80 d0 18
	00 00		 mov	 rax, QWORD PTR [rax+6352]
  000ea	44 8b 40 10	 mov	 r8d, DWORD PTR [rax+16]
  000ee	48 8b 54 24 48	 mov	 rdx, QWORD PTR list$[rsp]
  000f3	48 8b 44 24 40	 mov	 rax, QWORD PTR vm$[rsp]
  000f8	48 8b 88 50 19
	00 00		 mov	 rcx, QWORD PTR [rax+6480]
  000ff	e8 00 00 00 00	 call	 simple_list_addint_gc
; Line 29
  00104	48 8b 44 24 40	 mov	 rax, QWORD PTR vm$[rsp]
  00109	48 8b 80 e0 18
	00 00		 mov	 rax, QWORD PTR [rax+6368]
  00110	44 8b 40 10	 mov	 r8d, DWORD PTR [rax+16]
  00114	48 8b 54 24 48	 mov	 rdx, QWORD PTR list$[rsp]
  00119	48 8b 44 24 40	 mov	 rax, QWORD PTR vm$[rsp]
  0011e	48 8b 88 50 19
	00 00		 mov	 rcx, QWORD PTR [rax+6480]
  00125	e8 00 00 00 00	 call	 simple_list_addint_gc
; Line 30
  0012a	48 8b 44 24 40	 mov	 rax, QWORD PTR vm$[rsp]
  0012f	4c 8b 80 d8 18
	00 00		 mov	 r8, QWORD PTR [rax+6360]
  00136	48 8b 54 24 48	 mov	 rdx, QWORD PTR list$[rsp]
  0013b	48 8b 44 24 40	 mov	 rax, QWORD PTR vm$[rsp]
  00140	48 8b 88 50 19
	00 00		 mov	 rcx, QWORD PTR [rax+6480]
  00147	e8 00 00 00 00	 call	 simple_list_addpointer_gc
; Line 31
  0014c	48 8b 44 24 40	 mov	 rax, QWORD PTR vm$[rsp]
  00151	4c 8b 80 60 18
	00 00		 mov	 r8, QWORD PTR [rax+6240]
  00158	48 8b 54 24 48	 mov	 rdx, QWORD PTR list$[rsp]
  0015d	48 8b 44 24 40	 mov	 rax, QWORD PTR vm$[rsp]
  00162	48 8b 88 50 19
	00 00		 mov	 rcx, QWORD PTR [rax+6480]
  00169	e8 00 00 00 00	 call	 simple_list_addpointer_gc
; Line 32
  0016e	48 8b 44 24 40	 mov	 rax, QWORD PTR vm$[rsp]
  00173	48 8b 80 80 18
	00 00		 mov	 rax, QWORD PTR [rax+6272]
  0017a	44 8b 40 10	 mov	 r8d, DWORD PTR [rax+16]
  0017e	48 8b 54 24 48	 mov	 rdx, QWORD PTR list$[rsp]
  00183	48 8b 44 24 40	 mov	 rax, QWORD PTR vm$[rsp]
  00188	48 8b 88 50 19
	00 00		 mov	 rcx, QWORD PTR [rax+6480]
  0018f	e8 00 00 00 00	 call	 simple_list_addint_gc
; Line 33
  00194	48 8b 44 24 40	 mov	 rax, QWORD PTR vm$[rsp]
  00199	44 8b 80 78 18
	00 00		 mov	 r8d, DWORD PTR [rax+6264]
  001a0	48 8b 54 24 48	 mov	 rdx, QWORD PTR list$[rsp]
  001a5	48 8b 44 24 40	 mov	 rax, QWORD PTR vm$[rsp]
  001aa	48 8b 88 50 19
	00 00		 mov	 rcx, QWORD PTR [rax+6480]
  001b1	e8 00 00 00 00	 call	 simple_list_addint_gc
; Line 34
  001b6	48 8b 44 24 40	 mov	 rax, QWORD PTR vm$[rsp]
  001bb	48 8b 80 c0 18
	00 00		 mov	 rax, QWORD PTR [rax+6336]
  001c2	44 8b 40 10	 mov	 r8d, DWORD PTR [rax+16]
  001c6	48 8b 54 24 48	 mov	 rdx, QWORD PTR list$[rsp]
  001cb	48 8b 44 24 40	 mov	 rax, QWORD PTR vm$[rsp]
  001d0	48 8b 88 50 19
	00 00		 mov	 rcx, QWORD PTR [rax+6480]
  001d7	e8 00 00 00 00	 call	 simple_list_addint_gc
; Line 35
  001dc	48 8b 44 24 40	 mov	 rax, QWORD PTR vm$[rsp]
  001e1	48 8b 80 08 19
	00 00		 mov	 rax, QWORD PTR [rax+6408]
  001e8	44 8b 40 10	 mov	 r8d, DWORD PTR [rax+16]
  001ec	48 8b 54 24 48	 mov	 rdx, QWORD PTR list$[rsp]
  001f1	48 8b 44 24 40	 mov	 rax, QWORD PTR vm$[rsp]
  001f6	48 8b 88 50 19
	00 00		 mov	 rcx, QWORD PTR [rax+6480]
  001fd	e8 00 00 00 00	 call	 simple_list_addint_gc
; Line 36
  00202	48 8b 44 24 40	 mov	 rax, QWORD PTR vm$[rsp]
  00207	48 8b 80 f0 18
	00 00		 mov	 rax, QWORD PTR [rax+6384]
  0020e	44 8b 40 10	 mov	 r8d, DWORD PTR [rax+16]
  00212	48 8b 54 24 48	 mov	 rdx, QWORD PTR list$[rsp]
  00217	48 8b 44 24 40	 mov	 rax, QWORD PTR vm$[rsp]
  0021c	48 8b 88 50 19
	00 00		 mov	 rcx, QWORD PTR [rax+6480]
  00223	e8 00 00 00 00	 call	 simple_list_addint_gc
; Line 37
  00228	48 8b 44 24 40	 mov	 rax, QWORD PTR vm$[rsp]
  0022d	44 8b 80 f8 18
	00 00		 mov	 r8d, DWORD PTR [rax+6392]
  00234	48 8b 54 24 48	 mov	 rdx, QWORD PTR list$[rsp]
  00239	48 8b 44 24 40	 mov	 rax, QWORD PTR vm$[rsp]
  0023e	48 8b 88 50 19
	00 00		 mov	 rcx, QWORD PTR [rax+6480]
  00245	e8 00 00 00 00	 call	 simple_list_addint_gc
; Line 38
  0024a	48 8b 44 24 40	 mov	 rax, QWORD PTR vm$[rsp]
  0024f	48 8b 80 a0 18
	00 00		 mov	 rax, QWORD PTR [rax+6304]
  00256	44 8b 40 10	 mov	 r8d, DWORD PTR [rax+16]
  0025a	48 8b 54 24 48	 mov	 rdx, QWORD PTR list$[rsp]
  0025f	48 8b 44 24 40	 mov	 rax, QWORD PTR vm$[rsp]
  00264	48 8b 88 50 19
	00 00		 mov	 rcx, QWORD PTR [rax+6480]
  0026b	e8 00 00 00 00	 call	 simple_list_addint_gc
; Line 39
  00270	48 8b 44 24 40	 mov	 rax, QWORD PTR vm$[rsp]
  00275	48 8b 80 a8 18
	00 00		 mov	 rax, QWORD PTR [rax+6312]
  0027c	44 8b 40 10	 mov	 r8d, DWORD PTR [rax+16]
  00280	48 8b 54 24 48	 mov	 rdx, QWORD PTR list$[rsp]
  00285	48 8b 44 24 40	 mov	 rax, QWORD PTR vm$[rsp]
  0028a	48 8b 88 50 19
	00 00		 mov	 rcx, QWORD PTR [rax+6480]
  00291	e8 00 00 00 00	 call	 simple_list_addint_gc
; Line 40
  00296	48 8b 44 24 40	 mov	 rax, QWORD PTR vm$[rsp]
  0029b	48 8b 80 b8 18
	00 00		 mov	 rax, QWORD PTR [rax+6328]
  002a2	44 8b 40 10	 mov	 r8d, DWORD PTR [rax+16]
  002a6	48 8b 54 24 48	 mov	 rdx, QWORD PTR list$[rsp]
  002ab	48 8b 44 24 40	 mov	 rax, QWORD PTR vm$[rsp]
  002b0	48 8b 88 50 19
	00 00		 mov	 rcx, QWORD PTR [rax+6480]
  002b7	e8 00 00 00 00	 call	 simple_list_addint_gc
; Line 41
  002bc	48 8b 44 24 40	 mov	 rax, QWORD PTR vm$[rsp]
  002c1	4c 8b 80 40 18
	00 00		 mov	 r8, QWORD PTR [rax+6208]
  002c8	48 8b 54 24 48	 mov	 rdx, QWORD PTR list$[rsp]
  002cd	48 8b 44 24 40	 mov	 rax, QWORD PTR vm$[rsp]
  002d2	48 8b 88 50 19
	00 00		 mov	 rcx, QWORD PTR [rax+6480]
  002d9	e8 00 00 00 00	 call	 simple_list_addpointer_gc
; Line 42
  002de	48 8b 44 24 40	 mov	 rax, QWORD PTR vm$[rsp]
  002e3	44 8b 80 6c 18
	00 00		 mov	 r8d, DWORD PTR [rax+6252]
  002ea	48 8b 54 24 48	 mov	 rdx, QWORD PTR list$[rsp]
  002ef	48 8b 44 24 40	 mov	 rax, QWORD PTR vm$[rsp]
  002f4	48 8b 88 50 19
	00 00		 mov	 rcx, QWORD PTR [rax+6480]
  002fb	e8 00 00 00 00	 call	 simple_list_addint_gc
; Line 43
  00300	48 8b 44 24 40	 mov	 rax, QWORD PTR vm$[rsp]
  00305	4c 8b 80 70 18
	00 00		 mov	 r8, QWORD PTR [rax+6256]
  0030c	48 8b 54 24 48	 mov	 rdx, QWORD PTR list$[rsp]
  00311	48 8b 44 24 40	 mov	 rax, QWORD PTR vm$[rsp]
  00316	48 8b 88 50 19
	00 00		 mov	 rcx, QWORD PTR [rax+6480]
  0031d	e8 00 00 00 00	 call	 simple_list_addpointer_gc
; Line 44
  00322	48 8b 44 24 40	 mov	 rax, QWORD PTR vm$[rsp]
  00327	0f be 80 00 19
	00 00		 movsx	 eax, BYTE PTR [rax+6400]
  0032e	44 8b c0	 mov	 r8d, eax
  00331	48 8b 54 24 48	 mov	 rdx, QWORD PTR list$[rsp]
  00336	48 8b 44 24 40	 mov	 rax, QWORD PTR vm$[rsp]
  0033b	48 8b 88 50 19
	00 00		 mov	 rcx, QWORD PTR [rax+6480]
  00342	e8 00 00 00 00	 call	 simple_list_addint_gc
; Line 45
  00347	48 8b 44 24 40	 mov	 rax, QWORD PTR vm$[rsp]
  0034c	48 8b 80 40 19
	00 00		 mov	 rax, QWORD PTR [rax+6464]
  00353	44 8b 40 10	 mov	 r8d, DWORD PTR [rax+16]
  00357	48 8b 54 24 48	 mov	 rdx, QWORD PTR list$[rsp]
  0035c	48 8b 44 24 40	 mov	 rax, QWORD PTR vm$[rsp]
  00361	48 8b 88 50 19
	00 00		 mov	 rcx, QWORD PTR [rax+6480]
  00368	e8 00 00 00 00	 call	 simple_list_addint_gc
; Line 46
  0036d	48 8b 44 24 40	 mov	 rax, QWORD PTR vm$[rsp]
  00372	48 8b 80 60 19
	00 00		 mov	 rax, QWORD PTR [rax+6496]
  00379	44 8b 40 10	 mov	 r8d, DWORD PTR [rax+16]
  0037d	48 8b 54 24 48	 mov	 rdx, QWORD PTR list$[rsp]
  00382	48 8b 44 24 40	 mov	 rax, QWORD PTR vm$[rsp]
  00387	48 8b 88 50 19
	00 00		 mov	 rcx, QWORD PTR [rax+6480]
  0038e	e8 00 00 00 00	 call	 simple_list_addint_gc
; Line 47
  00393	48 8b 44 24 40	 mov	 rax, QWORD PTR vm$[rsp]
  00398	4c 8b 80 80 18
	00 00		 mov	 r8, QWORD PTR [rax+6272]
  0039f	48 8b 54 24 48	 mov	 rdx, QWORD PTR list$[rsp]
  003a4	48 8b 44 24 40	 mov	 rax, QWORD PTR vm$[rsp]
  003a9	48 8b 88 50 19
	00 00		 mov	 rcx, QWORD PTR [rax+6480]
  003b0	e8 00 00 00 00	 call	 simple_list_addpointer_gc
; Line 48
  003b5	48 8b 44 24 40	 mov	 rax, QWORD PTR vm$[rsp]
  003ba	44 8b 80 68 18
	00 00		 mov	 r8d, DWORD PTR [rax+6248]
  003c1	48 8b 54 24 48	 mov	 rdx, QWORD PTR list$[rsp]
  003c6	48 8b 44 24 40	 mov	 rax, QWORD PTR vm$[rsp]
  003cb	48 8b 88 50 19
	00 00		 mov	 rcx, QWORD PTR [rax+6480]
  003d2	e8 00 00 00 00	 call	 simple_list_addint_gc
; Line 49
  003d7	48 8b 44 24 40	 mov	 rax, QWORD PTR vm$[rsp]
  003dc	0f be 80 01 19
	00 00		 movsx	 eax, BYTE PTR [rax+6401]
  003e3	44 8b c0	 mov	 r8d, eax
  003e6	48 8b 54 24 48	 mov	 rdx, QWORD PTR list$[rsp]
  003eb	48 8b 44 24 40	 mov	 rax, QWORD PTR vm$[rsp]
  003f0	48 8b 88 50 19
	00 00		 mov	 rcx, QWORD PTR [rax+6480]
  003f7	e8 00 00 00 00	 call	 simple_list_addint_gc
; Line 50
  003fc	48 8b 44 24 40	 mov	 rax, QWORD PTR vm$[rsp]
  00401	0f be 80 10 19
	00 00		 movsx	 eax, BYTE PTR [rax+6416]
  00408	44 8b c0	 mov	 r8d, eax
  0040b	48 8b 54 24 48	 mov	 rdx, QWORD PTR list$[rsp]
  00410	48 8b 44 24 40	 mov	 rax, QWORD PTR vm$[rsp]
  00415	48 8b 88 50 19
	00 00		 mov	 rcx, QWORD PTR [rax+6480]
  0041c	e8 00 00 00 00	 call	 simple_list_addint_gc
; Line 51
  00421	48 8b 44 24 40	 mov	 rax, QWORD PTR vm$[rsp]
  00426	0f be 80 11 19
	00 00		 movsx	 eax, BYTE PTR [rax+6417]
  0042d	44 8b c0	 mov	 r8d, eax
  00430	48 8b 54 24 48	 mov	 rdx, QWORD PTR list$[rsp]
  00435	48 8b 44 24 40	 mov	 rax, QWORD PTR vm$[rsp]
  0043a	48 8b 88 50 19
	00 00		 mov	 rcx, QWORD PTR [rax+6480]
  00441	e8 00 00 00 00	 call	 simple_list_addint_gc
; Line 52
  00446	48 8b 44 24 40	 mov	 rax, QWORD PTR vm$[rsp]
  0044b	4c 8b 80 18 19
	00 00		 mov	 r8, QWORD PTR [rax+6424]
  00452	48 8b 54 24 48	 mov	 rdx, QWORD PTR list$[rsp]
  00457	48 8b 44 24 40	 mov	 rax, QWORD PTR vm$[rsp]
  0045c	48 8b 88 50 19
	00 00		 mov	 rcx, QWORD PTR [rax+6480]
  00463	e8 00 00 00 00	 call	 simple_list_addpointer_gc
; Line 53
  00468	48 8b 44 24 40	 mov	 rax, QWORD PTR vm$[rsp]
  0046d	0f be 80 20 19
	00 00		 movsx	 eax, BYTE PTR [rax+6432]
  00474	44 8b c0	 mov	 r8d, eax
  00477	48 8b 54 24 48	 mov	 rdx, QWORD PTR list$[rsp]
  0047c	48 8b 44 24 40	 mov	 rax, QWORD PTR vm$[rsp]
  00481	48 8b 88 50 19
	00 00		 mov	 rcx, QWORD PTR [rax+6480]
  00488	e8 00 00 00 00	 call	 simple_list_addint_gc
; Line 54
  0048d	48 8b 44 24 40	 mov	 rax, QWORD PTR vm$[rsp]
  00492	4c 8b 80 30 19
	00 00		 mov	 r8, QWORD PTR [rax+6448]
  00499	48 8b 54 24 48	 mov	 rdx, QWORD PTR list$[rsp]
  0049e	48 8b 44 24 40	 mov	 rax, QWORD PTR vm$[rsp]
  004a3	48 8b 88 50 19
	00 00		 mov	 rcx, QWORD PTR [rax+6480]
  004aa	e8 00 00 00 00	 call	 simple_list_addpointer_gc
; Line 55
  004af	48 8b 44 24 40	 mov	 rax, QWORD PTR vm$[rsp]
  004b4	0f be 80 49 19
	00 00		 movsx	 eax, BYTE PTR [rax+6473]
  004bb	44 8b c0	 mov	 r8d, eax
  004be	48 8b 54 24 48	 mov	 rdx, QWORD PTR list$[rsp]
  004c3	48 8b 44 24 40	 mov	 rax, QWORD PTR vm$[rsp]
  004c8	48 8b 88 50 19
	00 00		 mov	 rcx, QWORD PTR [rax+6480]
  004cf	e8 00 00 00 00	 call	 simple_list_addint_gc
; Line 56
  004d4	48 8b 44 24 40	 mov	 rax, QWORD PTR vm$[rsp]
  004d9	0f be 80 4a 19
	00 00		 movsx	 eax, BYTE PTR [rax+6474]
  004e0	44 8b c0	 mov	 r8d, eax
  004e3	48 8b 54 24 48	 mov	 rdx, QWORD PTR list$[rsp]
  004e8	48 8b 44 24 40	 mov	 rax, QWORD PTR vm$[rsp]
  004ed	48 8b 88 50 19
	00 00		 mov	 rcx, QWORD PTR [rax+6480]
  004f4	e8 00 00 00 00	 call	 simple_list_addint_gc
; Line 57
  004f9	48 8b 44 24 40	 mov	 rax, QWORD PTR vm$[rsp]
  004fe	44 8b 80 70 19
	00 00		 mov	 r8d, DWORD PTR [rax+6512]
  00505	48 8b 54 24 48	 mov	 rdx, QWORD PTR list$[rsp]
  0050a	48 8b 44 24 40	 mov	 rax, QWORD PTR vm$[rsp]
  0050f	48 8b 88 50 19
	00 00		 mov	 rcx, QWORD PTR [rax+6480]
  00516	e8 00 00 00 00	 call	 simple_list_addint_gc
; Line 58
  0051b	48 8b 44 24 40	 mov	 rax, QWORD PTR vm$[rsp]
  00520	0f be 80 b9 19
	00 00		 movsx	 eax, BYTE PTR [rax+6585]
  00527	44 8b c0	 mov	 r8d, eax
  0052a	48 8b 54 24 48	 mov	 rdx, QWORD PTR list$[rsp]
  0052f	48 8b 44 24 40	 mov	 rax, QWORD PTR vm$[rsp]
  00534	48 8b 88 50 19
	00 00		 mov	 rcx, QWORD PTR [rax+6480]
  0053b	e8 00 00 00 00	 call	 simple_list_addint_gc
; Line 59
  00540	48 8b 44 24 40	 mov	 rax, QWORD PTR vm$[rsp]
  00545	4c 8b 80 58 19
	00 00		 mov	 r8, QWORD PTR [rax+6488]
  0054c	48 8b 54 24 48	 mov	 rdx, QWORD PTR list$[rsp]
  00551	48 8b 44 24 40	 mov	 rax, QWORD PTR vm$[rsp]
  00556	48 8b 88 50 19
	00 00		 mov	 rcx, QWORD PTR [rax+6480]
  0055d	e8 00 00 00 00	 call	 simple_list_addpointer_gc
; Line 60
  00562	48 8b 44 24 40	 mov	 rax, QWORD PTR vm$[rsp]
  00567	48 8b 80 68 19
	00 00		 mov	 rax, QWORD PTR [rax+6504]
  0056e	44 8b 40 10	 mov	 r8d, DWORD PTR [rax+16]
  00572	48 8b 54 24 48	 mov	 rdx, QWORD PTR list$[rsp]
  00577	48 8b 44 24 40	 mov	 rax, QWORD PTR vm$[rsp]
  0057c	48 8b 88 50 19
	00 00		 mov	 rcx, QWORD PTR [rax+6480]
  00583	e8 00 00 00 00	 call	 simple_list_addint_gc
; Line 62
  00588	48 8b 4c 24 40	 mov	 rcx, QWORD PTR vm$[rsp]
  0058d	e8 00 00 00 00	 call	 simple_vm_getglobalscope
  00592	ba 0c 00 00 00	 mov	 edx, 12
  00597	48 8b c8	 mov	 rcx, rax
  0059a	e8 00 00 00 00	 call	 simple_list_getlist
  0059f	48 89 44 24 20	 mov	 QWORD PTR pThis$[rsp], rax
; Line 63
  005a4	ba 03 00 00 00	 mov	 edx, 3
  005a9	48 8b 4c 24 20	 mov	 rcx, QWORD PTR pThis$[rsp]
  005ae	e8 00 00 00 00	 call	 simple_list_getitem
  005b3	4c 8b 40 08	 mov	 r8, QWORD PTR [rax+8]
  005b7	48 8b 54 24 48	 mov	 rdx, QWORD PTR list$[rsp]
  005bc	48 8b 44 24 40	 mov	 rax, QWORD PTR vm$[rsp]
  005c1	48 8b 88 50 19
	00 00		 mov	 rcx, QWORD PTR [rax+6480]
  005c8	e8 00 00 00 00	 call	 simple_list_addpointer_gc
; Line 64
  005cd	ba 04 00 00 00	 mov	 edx, 4
  005d2	48 8b 4c 24 20	 mov	 rcx, QWORD PTR pThis$[rsp]
  005d7	e8 00 00 00 00	 call	 simple_list_getitem
  005dc	44 8b 40 08	 mov	 r8d, DWORD PTR [rax+8]
  005e0	48 8b 54 24 48	 mov	 rdx, QWORD PTR list$[rsp]
  005e5	48 8b 44 24 40	 mov	 rax, QWORD PTR vm$[rsp]
  005ea	48 8b 88 50 19
	00 00		 mov	 rcx, QWORD PTR [rax+6480]
  005f1	e8 00 00 00 00	 call	 simple_list_addint_gc
; Line 65
  005f6	48 8b 44 24 40	 mov	 rax, QWORD PTR vm$[rsp]
  005fb	44 8b 80 18 1a
	00 00		 mov	 r8d, DWORD PTR [rax+6680]
  00602	48 8b 54 24 48	 mov	 rdx, QWORD PTR list$[rsp]
  00607	48 8b 44 24 40	 mov	 rax, QWORD PTR vm$[rsp]
  0060c	48 8b 88 50 19
	00 00		 mov	 rcx, QWORD PTR [rax+6480]
  00613	e8 00 00 00 00	 call	 simple_list_addint_gc
; Line 66
  00618	48 83 c4 38	 add	 rsp, 56			; 00000038H
  0061c	c3		 ret	 0
simple_vm_savestate ENDP
_TEXT	ENDS
; Function compile flags: /Odtp
_TEXT	SEGMENT
nStep$ = 32
y$ = 36
x$ = 40
pActiveList$ = 48
list$ = 56
vm$ = 80
nType$ = 88
simple_vm_exit PROC
; File c:\users\thecarisma\documents\simple_github\simple\simple\sources\simple_vmstate.c
; Line 346
$LN19:
  00000	89 54 24 10	 mov	 DWORD PTR [rsp+16], edx
  00004	48 89 4c 24 08	 mov	 QWORD PTR [rsp+8], rcx
  00009	48 83 ec 48	 sub	 rsp, 72			; 00000048H
; Line 350
  0000d	48 8b 44 24 50	 mov	 rax, QWORD PTR vm$[rsp]
  00012	0f be 80 00 1a
	00 00		 movsx	 eax, BYTE PTR [rax+6656]
  00019	83 f8 01	 cmp	 eax, 1
  0001c	7c 11		 jl	 SHORT $LN16@simple_vm_
; Line 351
  0001e	48 8d 0d 00 00
	00 00		 lea	 rcx, OFFSET FLAT:$SG82547
  00025	e8 00 00 00 00	 call	 puts
; Line 352
  0002a	e9 c7 01 00 00	 jmp	 $LN17@simple_vm_
$LN16@simple_vm_:
; Line 354
  0002f	c7 44 24 20 00
	00 00 00	 mov	 DWORD PTR nStep$[rsp], 0
; Line 356
  00037	83 7c 24 58 01	 cmp	 DWORD PTR nType$[rsp], 1
  0003c	75 13		 jne	 SHORT $LN15@simple_vm_
; Line 357
  0003e	48 8b 44 24 50	 mov	 rax, QWORD PTR vm$[rsp]
  00043	48 8b 80 a0 18
	00 00		 mov	 rax, QWORD PTR [rax+6304]
  0004a	48 89 44 24 30	 mov	 QWORD PTR pActiveList$[rsp], rax
; Line 358
  0004f	eb 11		 jmp	 SHORT $LN14@simple_vm_
$LN15@simple_vm_:
; Line 359
  00051	48 8b 44 24 50	 mov	 rax, QWORD PTR vm$[rsp]
  00056	48 8b 80 a8 18
	00 00		 mov	 rax, QWORD PTR [rax+6312]
  0005d	48 89 44 24 30	 mov	 QWORD PTR pActiveList$[rsp], rax
$LN14@simple_vm_:
; Line 362
  00062	48 8b 44 24 50	 mov	 rax, QWORD PTR vm$[rsp]
  00067	0f b6 80 30 18
	00 00		 movzx	 eax, BYTE PTR [rax+6192]
  0006e	48 6b c0 18	 imul	 rax, 24
  00072	48 8b 4c 24 50	 mov	 rcx, QWORD PTR vm$[rsp]
  00077	8b 44 01 30	 mov	 eax, DWORD PTR [rcx+rax+48]
  0007b	83 e0 07	 and	 eax, 7
  0007e	83 f8 02	 cmp	 eax, 2
  00081	75 3a		 jne	 SHORT $LN13@simple_vm_
; Line 363
  00083	48 8b 44 24 50	 mov	 rax, QWORD PTR vm$[rsp]
  00088	0f b6 80 30 18
	00 00		 movzx	 eax, BYTE PTR [rax+6192]
  0008f	48 6b c0 18	 imul	 rax, 24
  00093	48 8b 4c 24 50	 mov	 rcx, QWORD PTR vm$[rsp]
  00098	f2 0f 2c 44 01
	38		 cvttsd2si eax, QWORD PTR [rcx+rax+56]
  0009e	89 44 24 20	 mov	 DWORD PTR nStep$[rsp], eax
; Line 364
  000a2	48 8b 44 24 50	 mov	 rax, QWORD PTR vm$[rsp]
  000a7	0f b6 80 30 18
	00 00		 movzx	 eax, BYTE PTR [rax+6192]
  000ae	fe c8		 dec	 al
  000b0	48 8b 4c 24 50	 mov	 rcx, QWORD PTR vm$[rsp]
  000b5	88 81 30 18 00
	00		 mov	 BYTE PTR [rcx+6192], al
; Line 366
  000bb	eb 11		 jmp	 SHORT $LN12@simple_vm_
$LN13@simple_vm_:
; Line 367
  000bd	48 8d 15 00 00
	00 00		 lea	 rdx, OFFSET FLAT:$SG82552
  000c4	48 8b 4c 24 50	 mov	 rcx, QWORD PTR vm$[rsp]
  000c9	e8 00 00 00 00	 call	 simple_vm_error
$LN12@simple_vm_:
; Line 369
  000ce	48 8b 44 24 30	 mov	 rax, QWORD PTR pActiveList$[rsp]
  000d3	83 78 10 00	 cmp	 DWORD PTR [rax+16], 0
  000d7	0f 8e ee 00 00
	00		 jle	 $LN11@simple_vm_
; Line 370
  000dd	48 8b 44 24 30	 mov	 rax, QWORD PTR pActiveList$[rsp]
  000e2	8b 40 10	 mov	 eax, DWORD PTR [rax+16]
  000e5	89 44 24 28	 mov	 DWORD PTR x$[rsp], eax
; Line 372
  000e9	83 7c 24 20 00	 cmp	 DWORD PTR nStep$[rsp], 0
  000ee	7e 65		 jle	 SHORT $LN10@simple_vm_
  000f0	48 8b 44 24 30	 mov	 rax, QWORD PTR pActiveList$[rsp]
  000f5	8b 40 10	 mov	 eax, DWORD PTR [rax+16]
  000f8	39 44 24 20	 cmp	 DWORD PTR nStep$[rsp], eax
  000fc	7f 57		 jg	 SHORT $LN10@simple_vm_
; Line 373
  000fe	48 8b 44 24 30	 mov	 rax, QWORD PTR pActiveList$[rsp]
  00103	8b 4c 24 20	 mov	 ecx, DWORD PTR nStep$[rsp]
  00107	8b 40 10	 mov	 eax, DWORD PTR [rax+16]
  0010a	2b c1		 sub	 eax, ecx
  0010c	ff c0		 inc	 eax
  0010e	89 44 24 28	 mov	 DWORD PTR x$[rsp], eax
; Line 374
  00112	8b 44 24 28	 mov	 eax, DWORD PTR x$[rsp]
  00116	ff c0		 inc	 eax
  00118	89 44 24 24	 mov	 DWORD PTR y$[rsp], eax
  0011c	eb 0a		 jmp	 SHORT $LN9@simple_vm_
$LN8@simple_vm_:
  0011e	8b 44 24 24	 mov	 eax, DWORD PTR y$[rsp]
  00122	ff c0		 inc	 eax
  00124	89 44 24 24	 mov	 DWORD PTR y$[rsp], eax
$LN9@simple_vm_:
  00128	48 8b 44 24 30	 mov	 rax, QWORD PTR pActiveList$[rsp]
  0012d	8b 40 10	 mov	 eax, DWORD PTR [rax+16]
  00130	39 44 24 24	 cmp	 DWORD PTR y$[rsp], eax
  00134	7f 1d		 jg	 SHORT $LN7@simple_vm_
; Line 375
  00136	44 8b 44 24 24	 mov	 r8d, DWORD PTR y$[rsp]
  0013b	48 8b 54 24 30	 mov	 rdx, QWORD PTR pActiveList$[rsp]
  00140	48 8b 44 24 50	 mov	 rax, QWORD PTR vm$[rsp]
  00145	48 8b 88 50 19
	00 00		 mov	 rcx, QWORD PTR [rax+6480]
  0014c	e8 00 00 00 00	 call	 simple_list_deleteitem_gc
; Line 376
  00151	eb cb		 jmp	 SHORT $LN8@simple_vm_
$LN7@simple_vm_:
; Line 377
  00153	eb 2d		 jmp	 SHORT $LN6@simple_vm_
$LN10@simple_vm_:
; Line 378
  00155	83 7c 24 58 01	 cmp	 DWORD PTR nType$[rsp], 1
  0015a	75 13		 jne	 SHORT $LN5@simple_vm_
; Line 379
  0015c	48 8d 15 00 00
	00 00		 lea	 rdx, OFFSET FLAT:$SG82560
  00163	48 8b 4c 24 50	 mov	 rcx, QWORD PTR vm$[rsp]
  00168	e8 00 00 00 00	 call	 simple_vm_error
; Line 380
  0016d	eb 11		 jmp	 SHORT $LN4@simple_vm_
$LN5@simple_vm_:
; Line 381
  0016f	48 8d 15 00 00
	00 00		 lea	 rdx, OFFSET FLAT:$SG82562
  00176	48 8b 4c 24 50	 mov	 rcx, QWORD PTR vm$[rsp]
  0017b	e8 00 00 00 00	 call	 simple_vm_error
$LN4@simple_vm_:
; Line 383
  00180	eb 74		 jmp	 SHORT $LN17@simple_vm_
$LN6@simple_vm_:
; Line 385
  00182	8b 54 24 28	 mov	 edx, DWORD PTR x$[rsp]
  00186	48 8b 4c 24 30	 mov	 rcx, QWORD PTR pActiveList$[rsp]
  0018b	e8 00 00 00 00	 call	 simple_list_getlist
  00190	48 89 44 24 38	 mov	 QWORD PTR list$[rsp], rax
; Line 386
  00195	ba 01 00 00 00	 mov	 edx, 1
  0019a	48 8b 4c 24 38	 mov	 rcx, QWORD PTR list$[rsp]
  0019f	e8 00 00 00 00	 call	 simple_list_getitem
  001a4	48 8b 4c 24 50	 mov	 rcx, QWORD PTR vm$[rsp]
  001a9	8b 40 08	 mov	 eax, DWORD PTR [rax+8]
  001ac	89 01		 mov	 DWORD PTR [rcx], eax
; Line 387
  001ae	41 b9 02 00 00
	00		 mov	 r9d, 2
  001b4	41 b8 02 00 00
	00		 mov	 r8d, 2
  001ba	48 8b 54 24 38	 mov	 rdx, QWORD PTR list$[rsp]
  001bf	48 8b 4c 24 50	 mov	 rcx, QWORD PTR vm$[rsp]
  001c4	e8 00 00 00 00	 call	 simple_vm_restorestate
; Line 388
  001c9	eb 2b		 jmp	 SHORT $LN3@simple_vm_
$LN11@simple_vm_:
; Line 389
  001cb	83 7c 24 58 01	 cmp	 DWORD PTR nType$[rsp], 1
  001d0	75 13		 jne	 SHORT $LN2@simple_vm_
; Line 390
  001d2	48 8d 15 00 00
	00 00		 lea	 rdx, OFFSET FLAT:$SG82565
  001d9	48 8b 4c 24 50	 mov	 rcx, QWORD PTR vm$[rsp]
  001de	e8 00 00 00 00	 call	 simple_vm_error
; Line 391
  001e3	eb 11		 jmp	 SHORT $LN1@simple_vm_
$LN2@simple_vm_:
; Line 392
  001e5	48 8d 15 00 00
	00 00		 lea	 rdx, OFFSET FLAT:$SG82567
  001ec	48 8b 4c 24 50	 mov	 rcx, QWORD PTR vm$[rsp]
  001f1	e8 00 00 00 00	 call	 simple_vm_error
$LN1@simple_vm_:
$LN3@simple_vm_:
$LN17@simple_vm_:
; Line 396
  001f6	48 83 c4 48	 add	 rsp, 72			; 00000048H
  001fa	c3		 ret	 0
simple_vm_exit ENDP
_TEXT	ENDS
; Function compile flags: /Odtp
_TEXT	SEGMENT
vm$ = 48
simple_vm_popexitmark PROC
; File c:\users\thecarisma\documents\simple_github\simple\simple\sources\simple_vmstate.c
; Line 338
$LN3:
  00000	48 89 4c 24 08	 mov	 QWORD PTR [rsp+8], rcx
  00005	48 83 ec 28	 sub	 rsp, 40			; 00000028H
; Line 340
  00009	48 8b 44 24 30	 mov	 rax, QWORD PTR vm$[rsp]
  0000e	48 8b 80 a0 18
	00 00		 mov	 rax, QWORD PTR [rax+6304]
  00015	44 8b 40 10	 mov	 r8d, DWORD PTR [rax+16]
  00019	48 8b 44 24 30	 mov	 rax, QWORD PTR vm$[rsp]
  0001e	48 8b 90 a0 18
	00 00		 mov	 rdx, QWORD PTR [rax+6304]
  00025	48 8b 44 24 30	 mov	 rax, QWORD PTR vm$[rsp]
  0002a	48 8b 88 50 19
	00 00		 mov	 rcx, QWORD PTR [rax+6480]
  00031	e8 00 00 00 00	 call	 simple_list_deleteitem_gc
; Line 342
  00036	48 8b 44 24 30	 mov	 rax, QWORD PTR vm$[rsp]
  0003b	48 8b 80 a8 18
	00 00		 mov	 rax, QWORD PTR [rax+6312]
  00042	44 8b 40 10	 mov	 r8d, DWORD PTR [rax+16]
  00046	48 8b 44 24 30	 mov	 rax, QWORD PTR vm$[rsp]
  0004b	48 8b 90 a8 18
	00 00		 mov	 rdx, QWORD PTR [rax+6312]
  00052	48 8b 44 24 30	 mov	 rax, QWORD PTR vm$[rsp]
  00057	48 8b 88 50 19
	00 00		 mov	 rcx, QWORD PTR [rax+6480]
  0005e	e8 00 00 00 00	 call	 simple_list_deleteitem_gc
; Line 343
  00063	48 83 c4 28	 add	 rsp, 40			; 00000028H
  00067	c3		 ret	 0
simple_vm_popexitmark ENDP
_TEXT	ENDS
; Function compile flags: /Odtp
_TEXT	SEGMENT
list$ = 32
vm$ = 64
simple_vm_exitmark PROC
; File c:\users\thecarisma\documents\simple_github\simple\simple\sources\simple_vmstate.c
; Line 325
$LN3:
  00000	48 89 4c 24 08	 mov	 QWORD PTR [rsp+8], rcx
  00005	48 83 ec 38	 sub	 rsp, 56			; 00000038H
; Line 328
  00009	48 8b 44 24 40	 mov	 rax, QWORD PTR vm$[rsp]
  0000e	48 8b 90 a0 18
	00 00		 mov	 rdx, QWORD PTR [rax+6304]
  00015	48 8b 44 24 40	 mov	 rax, QWORD PTR vm$[rsp]
  0001a	48 8b 88 50 19
	00 00		 mov	 rcx, QWORD PTR [rax+6480]
  00021	e8 00 00 00 00	 call	 simple_list_newlist_gc
  00026	48 89 44 24 20	 mov	 QWORD PTR list$[rsp], rax
; Line 329
  0002b	48 8b 44 24 40	 mov	 rax, QWORD PTR vm$[rsp]
  00030	48 8b 80 58 18
	00 00		 mov	 rax, QWORD PTR [rax+6232]
  00037	b9 08 00 00 00	 mov	 ecx, 8
  0003c	48 6b c9 01	 imul	 rcx, 1
  00040	48 8b 04 08	 mov	 rax, QWORD PTR [rax+rcx]
  00044	44 8b 40 08	 mov	 r8d, DWORD PTR [rax+8]
  00048	48 8b 54 24 20	 mov	 rdx, QWORD PTR list$[rsp]
  0004d	48 8b 44 24 40	 mov	 rax, QWORD PTR vm$[rsp]
  00052	48 8b 88 50 19
	00 00		 mov	 rcx, QWORD PTR [rax+6480]
  00059	e8 00 00 00 00	 call	 simple_list_addint_gc
; Line 330
  0005e	48 8b 54 24 20	 mov	 rdx, QWORD PTR list$[rsp]
  00063	48 8b 4c 24 40	 mov	 rcx, QWORD PTR vm$[rsp]
  00068	e8 00 00 00 00	 call	 simple_vm_savestate
; Line 332
  0006d	48 8b 44 24 40	 mov	 rax, QWORD PTR vm$[rsp]
  00072	48 8b 90 a8 18
	00 00		 mov	 rdx, QWORD PTR [rax+6312]
  00079	48 8b 44 24 40	 mov	 rax, QWORD PTR vm$[rsp]
  0007e	48 8b 88 50 19
	00 00		 mov	 rcx, QWORD PTR [rax+6480]
  00085	e8 00 00 00 00	 call	 simple_list_newlist_gc
  0008a	48 89 44 24 20	 mov	 QWORD PTR list$[rsp], rax
; Line 333
  0008f	48 8b 44 24 40	 mov	 rax, QWORD PTR vm$[rsp]
  00094	48 8b 80 58 18
	00 00		 mov	 rax, QWORD PTR [rax+6232]
  0009b	b9 08 00 00 00	 mov	 ecx, 8
  000a0	48 6b c9 02	 imul	 rcx, 2
  000a4	48 8b 04 08	 mov	 rax, QWORD PTR [rax+rcx]
  000a8	44 8b 40 08	 mov	 r8d, DWORD PTR [rax+8]
  000ac	48 8b 54 24 20	 mov	 rdx, QWORD PTR list$[rsp]
  000b1	48 8b 44 24 40	 mov	 rax, QWORD PTR vm$[rsp]
  000b6	48 8b 88 50 19
	00 00		 mov	 rcx, QWORD PTR [rax+6480]
  000bd	e8 00 00 00 00	 call	 simple_list_addint_gc
; Line 334
  000c2	48 8b 54 24 20	 mov	 rdx, QWORD PTR list$[rsp]
  000c7	48 8b 4c 24 40	 mov	 rcx, QWORD PTR vm$[rsp]
  000cc	e8 00 00 00 00	 call	 simple_vm_savestate
; Line 335
  000d1	48 83 c4 38	 add	 rsp, 56			; 00000038H
  000d5	c3		 ret	 0
simple_vm_exitmark ENDP
_TEXT	ENDS
; Function compile flags: /Odtp
_TEXT	SEGMENT
vm$ = 48
exit_simple_vm PROC
; File c:\users\thecarisma\documents\simple_github\simple\simple\sources\simple_vmstate.c
; Line 315
$LN4:
  00000	48 89 4c 24 08	 mov	 QWORD PTR [rsp+8], rcx
  00005	48 83 ec 28	 sub	 rsp, 40			; 00000028H
; Line 317
  00009	48 8b 44 24 30	 mov	 rax, QWORD PTR vm$[rsp]
  0000e	0f be 80 00 1a
	00 00		 movsx	 eax, BYTE PTR [rax+6656]
  00015	83 f8 01	 cmp	 eax, 1
  00018	7c 0e		 jl	 SHORT $LN1@exit_simpl
; Line 318
  0001a	48 8d 0d 00 00
	00 00		 lea	 rcx, OFFSET FLAT:$SG82528
  00021	e8 00 00 00 00	 call	 puts
; Line 319
  00026	eb 15		 jmp	 SHORT $LN2@exit_simpl
$LN1@exit_simpl:
; Line 321
  00028	48 8b 44 24 30	 mov	 rax, QWORD PTR vm$[rsp]
  0002d	48 8b 40 08	 mov	 rax, QWORD PTR [rax+8]
  00031	8b 40 10	 mov	 eax, DWORD PTR [rax+16]
  00034	ff c0		 inc	 eax
  00036	48 8b 4c 24 30	 mov	 rcx, QWORD PTR vm$[rsp]
  0003b	89 01		 mov	 DWORD PTR [rcx], eax
$LN2@exit_simpl:
; Line 322
  0003d	48 83 c4 28	 add	 rsp, 40			; 00000028H
  00041	c3		 ret	 0
exit_simple_vm ENDP
_TEXT	ENDS
; Function compile flags: /Odtp
_TEXT	SEGMENT
var$ = 32
cVarName$ = 40
__$ArrayPad$ = 96
vm$ = 128
simple_vm_range_newlist PROC
; File c:\users\thecarisma\documents\simple_github\simple\simple\sources\simple_vmstate.c
; Line 506
$LN4:
  00000	48 89 4c 24 08	 mov	 QWORD PTR [rsp+8], rcx
  00005	48 83 ec 78	 sub	 rsp, 120		; 00000078H
  00009	48 8b 05 00 00
	00 00		 mov	 rax, QWORD PTR __security_cookie
  00010	48 33 c4	 xor	 rax, rsp
  00013	48 89 44 24 60	 mov	 QWORD PTR __$ArrayPad$[rsp], rax
; Line 510
  00018	48 8b 84 24 80
	00 00 00	 mov	 rax, QWORD PTR vm$[rsp]
  00020	44 8b 00	 mov	 r8d, DWORD PTR [rax]
  00023	48 8d 15 00 00
	00 00		 lea	 rdx, OFFSET FLAT:$SG82633
  0002a	48 8d 4c 24 28	 lea	 rcx, QWORD PTR cVarName$[rsp]
  0002f	e8 00 00 00 00	 call	 sprintf
; Line 511
  00034	48 8d 54 24 28	 lea	 rdx, QWORD PTR cVarName$[rsp]
  00039	48 8b 8c 24 80
	00 00 00	 mov	 rcx, QWORD PTR vm$[rsp]
  00041	e8 00 00 00 00	 call	 simple_vm_findvar
  00046	85 c0		 test	 eax, eax
  00048	75 12		 jne	 SHORT $LN1@simple_vm_
; Line 512
  0004a	48 8d 54 24 28	 lea	 rdx, QWORD PTR cVarName$[rsp]
  0004f	48 8b 8c 24 80
	00 00 00	 mov	 rcx, QWORD PTR vm$[rsp]
  00057	e8 00 00 00 00	 call	 simple_vm_newvar
$LN1@simple_vm_:
; Line 514
  0005c	48 8b 84 24 80
	00 00 00	 mov	 rax, QWORD PTR vm$[rsp]
  00064	0f b6 80 30 18
	00 00		 movzx	 eax, BYTE PTR [rax+6192]
  0006b	48 6b c0 18	 imul	 rax, 24
  0006f	48 8b 8c 24 80
	00 00 00	 mov	 rcx, QWORD PTR vm$[rsp]
  00077	48 8b 44 01 38	 mov	 rax, QWORD PTR [rcx+rax+56]
  0007c	48 89 44 24 20	 mov	 QWORD PTR var$[rsp], rax
; Line 515
  00081	41 b9 03 00 00
	00		 mov	 r9d, 3
  00087	41 b8 02 00 00
	00		 mov	 r8d, 2
  0008d	48 8b 54 24 20	 mov	 rdx, QWORD PTR var$[rsp]
  00092	48 8b 84 24 80
	00 00 00	 mov	 rax, QWORD PTR vm$[rsp]
  0009a	48 8b 88 50 19
	00 00		 mov	 rcx, QWORD PTR [rax+6480]
  000a1	e8 00 00 00 00	 call	 simple_list_setint_gc
; Line 516
  000a6	41 b8 03 00 00
	00		 mov	 r8d, 3
  000ac	48 8b 54 24 20	 mov	 rdx, QWORD PTR var$[rsp]
  000b1	48 8b 84 24 80
	00 00 00	 mov	 rax, QWORD PTR vm$[rsp]
  000b9	48 8b 88 50 19
	00 00		 mov	 rcx, QWORD PTR [rax+6480]
  000c0	e8 00 00 00 00	 call	 simple_list_setlist_gc
; Line 517
  000c5	ba 03 00 00 00	 mov	 edx, 3
  000ca	48 8b 4c 24 20	 mov	 rcx, QWORD PTR var$[rsp]
  000cf	e8 00 00 00 00	 call	 simple_list_getlist
  000d4	48 8b d0	 mov	 rdx, rax
  000d7	48 8b 84 24 80
	00 00 00	 mov	 rax, QWORD PTR vm$[rsp]
  000df	48 8b 88 50 19
	00 00		 mov	 rcx, QWORD PTR [rax+6480]
  000e6	e8 00 00 00 00	 call	 simple_list_deleteallitems_gc
; Line 518
  000eb	ba 03 00 00 00	 mov	 edx, 3
  000f0	48 8b 4c 24 20	 mov	 rcx, QWORD PTR var$[rsp]
  000f5	e8 00 00 00 00	 call	 simple_list_getlist
  000fa	48 89 44 24 20	 mov	 QWORD PTR var$[rsp], rax
; Line 519
  000ff	48 8b 44 24 20	 mov	 rax, QWORD PTR var$[rsp]
; Line 520
  00104	48 8b 4c 24 60	 mov	 rcx, QWORD PTR __$ArrayPad$[rsp]
  00109	48 33 cc	 xor	 rcx, rsp
  0010c	e8 00 00 00 00	 call	 __security_check_cookie
  00111	48 83 c4 78	 add	 rsp, 120		; 00000078H
  00115	c3		 ret	 0
simple_vm_range_newlist ENDP
_TEXT	ENDS
; Function compile flags: /Odtp
_TEXT	SEGMENT
cStr$ = 32
x$ = 36
nNum2$ = 40
nNum1$ = 48
var$ = 56
pString2$ = 64
pString1$ = 72
$T1 = 80
vm$ = 112
simple_vm_range PROC
; File c:\users\thecarisma\documents\simple_github\simple\simple\sources\simple_vmstate.c
; Line 444
$LN28:
  00000	48 89 4c 24 08	 mov	 QWORD PTR [rsp+8], rcx
  00005	48 83 ec 68	 sub	 rsp, 104		; 00000068H
; Line 450
  00009	48 8b 44 24 70	 mov	 rax, QWORD PTR vm$[rsp]
  0000e	0f b6 80 30 18
	00 00		 movzx	 eax, BYTE PTR [rax+6192]
  00015	48 6b c0 18	 imul	 rax, 24
  00019	48 8b 4c 24 70	 mov	 rcx, QWORD PTR vm$[rsp]
  0001e	8b 44 01 30	 mov	 eax, DWORD PTR [rcx+rax+48]
  00022	83 e0 07	 and	 eax, 7
  00025	83 f8 02	 cmp	 eax, 2
  00028	0f 85 4b 01 00
	00		 jne	 $LN23@simple_vm_
; Line 451
  0002e	48 8b 44 24 70	 mov	 rax, QWORD PTR vm$[rsp]
  00033	0f b6 80 30 18
	00 00		 movzx	 eax, BYTE PTR [rax+6192]
  0003a	48 6b c0 18	 imul	 rax, 24
  0003e	48 8b 4c 24 70	 mov	 rcx, QWORD PTR vm$[rsp]
  00043	f2 0f 10 44 01
	38		 movsdx	 xmm0, QWORD PTR [rcx+rax+56]
  00049	f2 0f 11 44 24
	30		 movsdx	 QWORD PTR nNum1$[rsp], xmm0
; Line 452
  0004f	48 8b 44 24 70	 mov	 rax, QWORD PTR vm$[rsp]
  00054	0f b6 80 30 18
	00 00		 movzx	 eax, BYTE PTR [rax+6192]
  0005b	fe c8		 dec	 al
  0005d	48 8b 4c 24 70	 mov	 rcx, QWORD PTR vm$[rsp]
  00062	88 81 30 18 00
	00		 mov	 BYTE PTR [rcx+6192], al
; Line 453
  00068	48 8b 44 24 70	 mov	 rax, QWORD PTR vm$[rsp]
  0006d	0f b6 80 30 18
	00 00		 movzx	 eax, BYTE PTR [rax+6192]
  00074	48 6b c0 18	 imul	 rax, 24
  00078	48 8b 4c 24 70	 mov	 rcx, QWORD PTR vm$[rsp]
  0007d	8b 44 01 30	 mov	 eax, DWORD PTR [rcx+rax+48]
  00081	83 e0 07	 and	 eax, 7
  00084	83 f8 02	 cmp	 eax, 2
  00087	0f 85 e7 00 00
	00		 jne	 $LN22@simple_vm_
; Line 454
  0008d	48 8b 44 24 70	 mov	 rax, QWORD PTR vm$[rsp]
  00092	0f b6 80 30 18
	00 00		 movzx	 eax, BYTE PTR [rax+6192]
  00099	48 6b c0 18	 imul	 rax, 24
  0009d	48 8b 4c 24 70	 mov	 rcx, QWORD PTR vm$[rsp]
  000a2	f2 0f 10 44 01
	38		 movsdx	 xmm0, QWORD PTR [rcx+rax+56]
  000a8	f2 0f 11 44 24
	28		 movsdx	 QWORD PTR nNum2$[rsp], xmm0
; Line 455
  000ae	48 8b 44 24 70	 mov	 rax, QWORD PTR vm$[rsp]
  000b3	0f b6 80 30 18
	00 00		 movzx	 eax, BYTE PTR [rax+6192]
  000ba	fe c8		 dec	 al
  000bc	48 8b 4c 24 70	 mov	 rcx, QWORD PTR vm$[rsp]
  000c1	88 81 30 18 00
	00		 mov	 BYTE PTR [rcx+6192], al
; Line 457
  000c7	48 8b 4c 24 70	 mov	 rcx, QWORD PTR vm$[rsp]
  000cc	e8 00 00 00 00	 call	 simple_vm_range_newlist
  000d1	48 89 44 24 38	 mov	 QWORD PTR var$[rsp], rax
; Line 459
  000d6	f2 0f 10 44 24
	30		 movsdx	 xmm0, QWORD PTR nNum1$[rsp]
  000dc	66 0f 2f 44 24
	28		 comisd	 xmm0, QWORD PTR nNum2$[rsp]
  000e2	72 4b		 jb	 SHORT $LN21@simple_vm_
; Line 460
  000e4	f2 0f 2c 44 24
	28		 cvttsd2si eax, QWORD PTR nNum2$[rsp]
  000ea	89 44 24 24	 mov	 DWORD PTR x$[rsp], eax
  000ee	eb 0a		 jmp	 SHORT $LN20@simple_vm_
$LN19@simple_vm_:
  000f0	8b 44 24 24	 mov	 eax, DWORD PTR x$[rsp]
  000f4	ff c0		 inc	 eax
  000f6	89 44 24 24	 mov	 DWORD PTR x$[rsp], eax
$LN20@simple_vm_:
  000fa	f2 0f 2a 44 24
	24		 cvtsi2sd xmm0, DWORD PTR x$[rsp]
  00100	f2 0f 10 4c 24
	30		 movsdx	 xmm1, QWORD PTR nNum1$[rsp]
  00106	66 0f 2f c8	 comisd	 xmm1, xmm0
  0010a	72 21		 jb	 SHORT $LN18@simple_vm_
; Line 461
  0010c	f2 0f 2a 44 24
	24		 cvtsi2sd xmm0, DWORD PTR x$[rsp]
  00112	0f 28 d0	 movaps	 xmm2, xmm0
  00115	48 8b 54 24 38	 mov	 rdx, QWORD PTR var$[rsp]
  0011a	48 8b 44 24 70	 mov	 rax, QWORD PTR vm$[rsp]
  0011f	48 8b 88 50 19
	00 00		 mov	 rcx, QWORD PTR [rax+6480]
  00126	e8 00 00 00 00	 call	 simple_list_adddouble_gc
; Line 462
  0012b	eb c3		 jmp	 SHORT $LN19@simple_vm_
$LN18@simple_vm_:
; Line 464
  0012d	eb 45		 jmp	 SHORT $LN17@simple_vm_
$LN21@simple_vm_:
; Line 465
  0012f	f2 0f 2c 44 24
	28		 cvttsd2si eax, QWORD PTR nNum2$[rsp]
  00135	89 44 24 24	 mov	 DWORD PTR x$[rsp], eax
  00139	eb 0a		 jmp	 SHORT $LN16@simple_vm_
$LN15@simple_vm_:
  0013b	8b 44 24 24	 mov	 eax, DWORD PTR x$[rsp]
  0013f	ff c8		 dec	 eax
  00141	89 44 24 24	 mov	 DWORD PTR x$[rsp], eax
$LN16@simple_vm_:
  00145	f2 0f 2a 44 24
	24		 cvtsi2sd xmm0, DWORD PTR x$[rsp]
  0014b	66 0f 2f 44 24
	30		 comisd	 xmm0, QWORD PTR nNum1$[rsp]
  00151	72 21		 jb	 SHORT $LN14@simple_vm_
; Line 466
  00153	f2 0f 2a 44 24
	24		 cvtsi2sd xmm0, DWORD PTR x$[rsp]
  00159	0f 28 d0	 movaps	 xmm2, xmm0
  0015c	48 8b 54 24 38	 mov	 rdx, QWORD PTR var$[rsp]
  00161	48 8b 44 24 70	 mov	 rax, QWORD PTR vm$[rsp]
  00166	48 8b 88 50 19
	00 00		 mov	 rcx, QWORD PTR [rax+6480]
  0016d	e8 00 00 00 00	 call	 simple_list_adddouble_gc
; Line 467
  00172	eb c7		 jmp	 SHORT $LN15@simple_vm_
$LN14@simple_vm_:
$LN17@simple_vm_:
$LN22@simple_vm_:
; Line 469
  00174	e9 5d 02 00 00	 jmp	 $LN13@simple_vm_
$LN23@simple_vm_:
; Line 471
  00179	48 8b 44 24 70	 mov	 rax, QWORD PTR vm$[rsp]
  0017e	0f b6 80 30 18
	00 00		 movzx	 eax, BYTE PTR [rax+6192]
  00185	48 6b c0 18	 imul	 rax, 24
  00189	48 8b 4c 24 70	 mov	 rcx, QWORD PTR vm$[rsp]
  0018e	8b 44 01 30	 mov	 eax, DWORD PTR [rcx+rax+48]
  00192	83 e0 07	 and	 eax, 7
  00195	83 f8 01	 cmp	 eax, 1
  00198	0f 85 38 02 00
	00		 jne	 $LN12@simple_vm_
; Line 472
  0019e	48 8b 44 24 70	 mov	 rax, QWORD PTR vm$[rsp]
  001a3	0f b6 80 30 18
	00 00		 movzx	 eax, BYTE PTR [rax+6192]
  001aa	48 6b c0 18	 imul	 rax, 24
  001ae	48 8b 4c 24 70	 mov	 rcx, QWORD PTR vm$[rsp]
  001b3	48 8b 44 01 38	 mov	 rax, QWORD PTR [rcx+rax+56]
  001b8	48 8b 10	 mov	 rdx, QWORD PTR [rax]
  001bb	48 8b 44 24 70	 mov	 rax, QWORD PTR vm$[rsp]
  001c0	48 8b 88 50 19
	00 00		 mov	 rcx, QWORD PTR [rax+6480]
  001c7	e8 00 00 00 00	 call	 simple_string_new_gc
  001cc	48 89 44 24 48	 mov	 QWORD PTR pString1$[rsp], rax
; Line 473
  001d1	48 8b 44 24 70	 mov	 rax, QWORD PTR vm$[rsp]
  001d6	0f b6 80 30 18
	00 00		 movzx	 eax, BYTE PTR [rax+6192]
  001dd	fe c8		 dec	 al
  001df	48 8b 4c 24 70	 mov	 rcx, QWORD PTR vm$[rsp]
  001e4	88 81 30 18 00
	00		 mov	 BYTE PTR [rcx+6192], al
; Line 474
  001ea	48 8b 4c 24 48	 mov	 rcx, QWORD PTR pString1$[rsp]
  001ef	e8 00 00 00 00	 call	 simple_string_size
  001f4	83 f8 01	 cmp	 eax, 1
  001f7	0f 85 c3 01 00
	00		 jne	 $LN11@simple_vm_
; Line 475
  001fd	48 8b 44 24 70	 mov	 rax, QWORD PTR vm$[rsp]
  00202	0f b6 80 30 18
	00 00		 movzx	 eax, BYTE PTR [rax+6192]
  00209	48 6b c0 18	 imul	 rax, 24
  0020d	48 8b 4c 24 70	 mov	 rcx, QWORD PTR vm$[rsp]
  00212	8b 44 01 30	 mov	 eax, DWORD PTR [rcx+rax+48]
  00216	83 e0 07	 and	 eax, 7
  00219	83 f8 01	 cmp	 eax, 1
  0021c	0f 85 9e 01 00
	00		 jne	 $LN10@simple_vm_
; Line 476
  00222	48 8b 44 24 70	 mov	 rax, QWORD PTR vm$[rsp]
  00227	0f b6 80 30 18
	00 00		 movzx	 eax, BYTE PTR [rax+6192]
  0022e	48 6b c0 18	 imul	 rax, 24
  00232	48 8b 4c 24 70	 mov	 rcx, QWORD PTR vm$[rsp]
  00237	48 8b 44 01 38	 mov	 rax, QWORD PTR [rcx+rax+56]
  0023c	48 8b 10	 mov	 rdx, QWORD PTR [rax]
  0023f	48 8b 44 24 70	 mov	 rax, QWORD PTR vm$[rsp]
  00244	48 8b 88 50 19
	00 00		 mov	 rcx, QWORD PTR [rax+6480]
  0024b	e8 00 00 00 00	 call	 simple_string_new_gc
  00250	48 89 44 24 40	 mov	 QWORD PTR pString2$[rsp], rax
; Line 477
  00255	48 8b 44 24 70	 mov	 rax, QWORD PTR vm$[rsp]
  0025a	0f b6 80 30 18
	00 00		 movzx	 eax, BYTE PTR [rax+6192]
  00261	fe c8		 dec	 al
  00263	48 8b 4c 24 70	 mov	 rcx, QWORD PTR vm$[rsp]
  00268	88 81 30 18 00
	00		 mov	 BYTE PTR [rcx+6192], al
; Line 478
  0026e	48 8b 4c 24 40	 mov	 rcx, QWORD PTR pString2$[rsp]
  00273	e8 00 00 00 00	 call	 simple_string_size
  00278	83 f8 01	 cmp	 eax, 1
  0027b	0f 85 29 01 00
	00		 jne	 $LN9@simple_vm_
; Line 479
  00281	48 c7 44 24 50
	01 00 00 00	 mov	 QWORD PTR $T1[rsp], 1
  0028a	48 83 7c 24 50
	02		 cmp	 QWORD PTR $T1[rsp], 2
  00290	73 02		 jae	 SHORT $LN26@simple_vm_
  00292	eb 05		 jmp	 SHORT $LN27@simple_vm_
$LN26@simple_vm_:
  00294	e8 00 00 00 00	 call	 __report_rangecheckfailure
$LN27@simple_vm_:
  00299	48 8b 44 24 50	 mov	 rax, QWORD PTR $T1[rsp]
  0029e	c6 44 04 20 00	 mov	 BYTE PTR cStr$[rsp+rax], 0
; Line 480
  002a3	b8 01 00 00 00	 mov	 eax, 1
  002a8	48 6b c0 00	 imul	 rax, 0
  002ac	48 8b 4c 24 48	 mov	 rcx, QWORD PTR pString1$[rsp]
  002b1	48 8b 09	 mov	 rcx, QWORD PTR [rcx]
  002b4	0f be 04 01	 movsx	 eax, BYTE PTR [rcx+rax]
  002b8	f2 0f 2a c0	 cvtsi2sd xmm0, eax
  002bc	f2 0f 11 44 24
	30		 movsdx	 QWORD PTR nNum1$[rsp], xmm0
; Line 481
  002c2	b8 01 00 00 00	 mov	 eax, 1
  002c7	48 6b c0 00	 imul	 rax, 0
  002cb	48 8b 4c 24 40	 mov	 rcx, QWORD PTR pString2$[rsp]
  002d0	48 8b 09	 mov	 rcx, QWORD PTR [rcx]
  002d3	0f be 04 01	 movsx	 eax, BYTE PTR [rcx+rax]
  002d7	f2 0f 2a c0	 cvtsi2sd xmm0, eax
  002db	f2 0f 11 44 24
	28		 movsdx	 QWORD PTR nNum2$[rsp], xmm0
; Line 483
  002e1	48 8b 4c 24 70	 mov	 rcx, QWORD PTR vm$[rsp]
  002e6	e8 00 00 00 00	 call	 simple_vm_range_newlist
  002eb	48 89 44 24 38	 mov	 QWORD PTR var$[rsp], rax
; Line 485
  002f0	f2 0f 10 44 24
	30		 movsdx	 xmm0, QWORD PTR nNum1$[rsp]
  002f6	66 0f 2f 44 24
	28		 comisd	 xmm0, QWORD PTR nNum2$[rsp]
  002fc	72 59		 jb	 SHORT $LN8@simple_vm_
; Line 486
  002fe	f2 0f 2c 44 24
	28		 cvttsd2si eax, QWORD PTR nNum2$[rsp]
  00304	89 44 24 24	 mov	 DWORD PTR x$[rsp], eax
  00308	eb 0a		 jmp	 SHORT $LN7@simple_vm_
$LN6@simple_vm_:
  0030a	8b 44 24 24	 mov	 eax, DWORD PTR x$[rsp]
  0030e	ff c0		 inc	 eax
  00310	89 44 24 24	 mov	 DWORD PTR x$[rsp], eax
$LN7@simple_vm_:
  00314	f2 0f 2a 44 24
	24		 cvtsi2sd xmm0, DWORD PTR x$[rsp]
  0031a	f2 0f 10 4c 24
	30		 movsdx	 xmm1, QWORD PTR nNum1$[rsp]
  00320	66 0f 2f c8	 comisd	 xmm1, xmm0
  00324	72 2f		 jb	 SHORT $LN5@simple_vm_
; Line 487
  00326	b8 01 00 00 00	 mov	 eax, 1
  0032b	48 6b c0 00	 imul	 rax, 0
  0032f	0f b6 4c 24 24	 movzx	 ecx, BYTE PTR x$[rsp]
  00334	88 4c 04 20	 mov	 BYTE PTR cStr$[rsp+rax], cl
; Line 488
  00338	4c 8d 44 24 20	 lea	 r8, QWORD PTR cStr$[rsp]
  0033d	48 8b 54 24 38	 mov	 rdx, QWORD PTR var$[rsp]
  00342	48 8b 44 24 70	 mov	 rax, QWORD PTR vm$[rsp]
  00347	48 8b 88 50 19
	00 00		 mov	 rcx, QWORD PTR [rax+6480]
  0034e	e8 00 00 00 00	 call	 simple_list_addstring_gc
; Line 489
  00353	eb b5		 jmp	 SHORT $LN6@simple_vm_
$LN5@simple_vm_:
; Line 491
  00355	eb 53		 jmp	 SHORT $LN4@simple_vm_
$LN8@simple_vm_:
; Line 492
  00357	f2 0f 2c 44 24
	28		 cvttsd2si eax, QWORD PTR nNum2$[rsp]
  0035d	89 44 24 24	 mov	 DWORD PTR x$[rsp], eax
  00361	eb 0a		 jmp	 SHORT $LN3@simple_vm_
$LN2@simple_vm_:
  00363	8b 44 24 24	 mov	 eax, DWORD PTR x$[rsp]
  00367	ff c8		 dec	 eax
  00369	89 44 24 24	 mov	 DWORD PTR x$[rsp], eax
$LN3@simple_vm_:
  0036d	f2 0f 2a 44 24
	24		 cvtsi2sd xmm0, DWORD PTR x$[rsp]
  00373	66 0f 2f 44 24
	30		 comisd	 xmm0, QWORD PTR nNum1$[rsp]
  00379	72 2f		 jb	 SHORT $LN1@simple_vm_
; Line 493
  0037b	b8 01 00 00 00	 mov	 eax, 1
  00380	48 6b c0 00	 imul	 rax, 0
  00384	0f b6 4c 24 24	 movzx	 ecx, BYTE PTR x$[rsp]
  00389	88 4c 04 20	 mov	 BYTE PTR cStr$[rsp+rax], cl
; Line 494
  0038d	4c 8d 44 24 20	 lea	 r8, QWORD PTR cStr$[rsp]
  00392	48 8b 54 24 38	 mov	 rdx, QWORD PTR var$[rsp]
  00397	48 8b 44 24 70	 mov	 rax, QWORD PTR vm$[rsp]
  0039c	48 8b 88 50 19
	00 00		 mov	 rcx, QWORD PTR [rax+6480]
  003a3	e8 00 00 00 00	 call	 simple_list_addstring_gc
; Line 495
  003a8	eb b9		 jmp	 SHORT $LN2@simple_vm_
$LN1@simple_vm_:
$LN4@simple_vm_:
$LN9@simple_vm_:
; Line 498
  003aa	48 8b 54 24 40	 mov	 rdx, QWORD PTR pString2$[rsp]
  003af	48 8b 44 24 70	 mov	 rax, QWORD PTR vm$[rsp]
  003b4	48 8b 88 50 19
	00 00		 mov	 rcx, QWORD PTR [rax+6480]
  003bb	e8 00 00 00 00	 call	 simple_string_delete_gc
$LN10@simple_vm_:
$LN11@simple_vm_:
; Line 501
  003c0	48 8b 54 24 48	 mov	 rdx, QWORD PTR pString1$[rsp]
  003c5	48 8b 44 24 70	 mov	 rax, QWORD PTR vm$[rsp]
  003ca	48 8b 88 50 19
	00 00		 mov	 rcx, QWORD PTR [rax+6480]
  003d1	e8 00 00 00 00	 call	 simple_string_delete_gc
$LN12@simple_vm_:
$LN13@simple_vm_:
$LN25@simple_vm_:
; Line 503
  003d6	48 83 c4 68	 add	 rsp, 104		; 00000068H
  003da	c3		 ret	 0
simple_vm_range ENDP
_TEXT	ENDS
; Function compile flags: /Odtp
_TEXT	SEGMENT
nType$ = 32
string$ = 40
nNum1$ = 48
pointer$ = 56
vm$ = 80
simple_vm_dup PROC
; File c:\users\thecarisma\documents\simple_github\simple\simple\sources\simple_vmstate.c
; Line 421
$LN8:
  00000	48 89 4c 24 08	 mov	 QWORD PTR [rsp+8], rcx
  00005	48 83 ec 48	 sub	 rsp, 72			; 00000048H
; Line 426
  00009	48 8b 44 24 50	 mov	 rax, QWORD PTR vm$[rsp]
  0000e	0f b6 80 30 18
	00 00		 movzx	 eax, BYTE PTR [rax+6192]
  00015	48 6b c0 18	 imul	 rax, 24
  00019	48 8b 4c 24 50	 mov	 rcx, QWORD PTR vm$[rsp]
  0001e	8b 44 01 30	 mov	 eax, DWORD PTR [rcx+rax+48]
  00022	83 e0 07	 and	 eax, 7
  00025	83 f8 01	 cmp	 eax, 1
  00028	0f 85 8b 00 00
	00		 jne	 $LN5@simple_vm_
; Line 427
  0002e	48 8b 44 24 50	 mov	 rax, QWORD PTR vm$[rsp]
  00033	0f b6 80 30 18
	00 00		 movzx	 eax, BYTE PTR [rax+6192]
  0003a	48 6b c0 18	 imul	 rax, 24
  0003e	48 8b 4c 24 50	 mov	 rcx, QWORD PTR vm$[rsp]
  00043	48 8b 44 01 38	 mov	 rax, QWORD PTR [rcx+rax+56]
  00048	48 8b 10	 mov	 rdx, QWORD PTR [rax]
  0004b	48 8b 44 24 50	 mov	 rax, QWORD PTR vm$[rsp]
  00050	48 8b 88 50 19
	00 00		 mov	 rcx, QWORD PTR [rax+6480]
  00057	e8 00 00 00 00	 call	 simple_string_new_gc
  0005c	48 89 44 24 28	 mov	 QWORD PTR string$[rsp], rax
; Line 428
  00061	48 8b 44 24 50	 mov	 rax, QWORD PTR vm$[rsp]
  00066	0f b6 80 30 18
	00 00		 movzx	 eax, BYTE PTR [rax+6192]
  0006d	fe c0		 inc	 al
  0006f	48 8b 4c 24 50	 mov	 rcx, QWORD PTR vm$[rsp]
  00074	88 81 30 18 00
	00		 mov	 BYTE PTR [rcx+6192], al
  0007a	48 8b 44 24 50	 mov	 rax, QWORD PTR vm$[rsp]
  0007f	0f b6 80 30 18
	00 00		 movzx	 eax, BYTE PTR [rax+6192]
  00086	48 8b 4c 24 50	 mov	 rcx, QWORD PTR vm$[rsp]
  0008b	48 83 c1 30	 add	 rcx, 48			; 00000030H
  0008f	48 8b 54 24 28	 mov	 rdx, QWORD PTR string$[rsp]
  00094	4c 8b 02	 mov	 r8, QWORD PTR [rdx]
  00097	8b d0		 mov	 edx, eax
  00099	e8 00 00 00 00	 call	 simple_itemarray_setstring
; Line 429
  0009e	48 8b 54 24 28	 mov	 rdx, QWORD PTR string$[rsp]
  000a3	48 8b 44 24 50	 mov	 rax, QWORD PTR vm$[rsp]
  000a8	48 8b 88 50 19
	00 00		 mov	 rcx, QWORD PTR [rax+6480]
  000af	e8 00 00 00 00	 call	 simple_string_delete_gc
  000b4	e9 64 01 00 00	 jmp	 $LN4@simple_vm_
$LN5@simple_vm_:
; Line 431
  000b9	48 8b 44 24 50	 mov	 rax, QWORD PTR vm$[rsp]
  000be	0f b6 80 30 18
	00 00		 movzx	 eax, BYTE PTR [rax+6192]
  000c5	48 6b c0 18	 imul	 rax, 24
  000c9	48 8b 4c 24 50	 mov	 rcx, QWORD PTR vm$[rsp]
  000ce	8b 44 01 30	 mov	 eax, DWORD PTR [rcx+rax+48]
  000d2	83 e0 07	 and	 eax, 7
  000d5	83 f8 02	 cmp	 eax, 2
  000d8	75 61		 jne	 SHORT $LN3@simple_vm_
; Line 432
  000da	48 8b 44 24 50	 mov	 rax, QWORD PTR vm$[rsp]
  000df	0f b6 80 30 18
	00 00		 movzx	 eax, BYTE PTR [rax+6192]
  000e6	48 6b c0 18	 imul	 rax, 24
  000ea	48 8b 4c 24 50	 mov	 rcx, QWORD PTR vm$[rsp]
  000ef	f2 0f 10 44 01
	38		 movsdx	 xmm0, QWORD PTR [rcx+rax+56]
  000f5	f2 0f 11 44 24
	30		 movsdx	 QWORD PTR nNum1$[rsp], xmm0
; Line 433
  000fb	48 8b 44 24 50	 mov	 rax, QWORD PTR vm$[rsp]
  00100	0f b6 80 30 18
	00 00		 movzx	 eax, BYTE PTR [rax+6192]
  00107	fe c0		 inc	 al
  00109	48 8b 4c 24 50	 mov	 rcx, QWORD PTR vm$[rsp]
  0010e	88 81 30 18 00
	00		 mov	 BYTE PTR [rcx+6192], al
  00114	48 8b 44 24 50	 mov	 rax, QWORD PTR vm$[rsp]
  00119	0f b6 80 30 18
	00 00		 movzx	 eax, BYTE PTR [rax+6192]
  00120	48 8b 4c 24 50	 mov	 rcx, QWORD PTR vm$[rsp]
  00125	48 83 c1 30	 add	 rcx, 48			; 00000030H
  00129	f2 0f 10 54 24
	30		 movsdx	 xmm2, QWORD PTR nNum1$[rsp]
  0012f	8b d0		 mov	 edx, eax
  00131	e8 00 00 00 00	 call	 simple_itemarray_setdouble
  00136	e9 e2 00 00 00	 jmp	 $LN2@simple_vm_
$LN3@simple_vm_:
; Line 435
  0013b	48 8b 44 24 50	 mov	 rax, QWORD PTR vm$[rsp]
  00140	0f b6 80 30 18
	00 00		 movzx	 eax, BYTE PTR [rax+6192]
  00147	48 6b c0 18	 imul	 rax, 24
  0014b	48 8b 4c 24 50	 mov	 rcx, QWORD PTR vm$[rsp]
  00150	8b 44 01 30	 mov	 eax, DWORD PTR [rcx+rax+48]
  00154	83 e0 07	 and	 eax, 7
  00157	83 f8 03	 cmp	 eax, 3
  0015a	0f 85 bd 00 00
	00		 jne	 $LN1@simple_vm_
; Line 436
  00160	48 8b 44 24 50	 mov	 rax, QWORD PTR vm$[rsp]
  00165	0f b6 80 30 18
	00 00		 movzx	 eax, BYTE PTR [rax+6192]
  0016c	48 6b c0 18	 imul	 rax, 24
  00170	48 8b 4c 24 50	 mov	 rcx, QWORD PTR vm$[rsp]
  00175	48 8b 44 01 38	 mov	 rax, QWORD PTR [rcx+rax+56]
  0017a	48 89 44 24 38	 mov	 QWORD PTR pointer$[rsp], rax
; Line 437
  0017f	48 8b 44 24 50	 mov	 rax, QWORD PTR vm$[rsp]
  00184	0f b6 80 30 18
	00 00		 movzx	 eax, BYTE PTR [rax+6192]
  0018b	48 6b c0 18	 imul	 rax, 24
  0018f	48 8b 4c 24 50	 mov	 rcx, QWORD PTR vm$[rsp]
  00194	8b 44 01 30	 mov	 eax, DWORD PTR [rcx+rax+48]
  00198	c1 e8 05	 shr	 eax, 5
  0019b	83 e0 03	 and	 eax, 3
  0019e	89 44 24 20	 mov	 DWORD PTR nType$[rsp], eax
; Line 438
  001a2	48 8b 44 24 50	 mov	 rax, QWORD PTR vm$[rsp]
  001a7	0f b6 80 30 18
	00 00		 movzx	 eax, BYTE PTR [rax+6192]
  001ae	fe c0		 inc	 al
  001b0	48 8b 4c 24 50	 mov	 rcx, QWORD PTR vm$[rsp]
  001b5	88 81 30 18 00
	00		 mov	 BYTE PTR [rcx+6192], al
  001bb	48 8b 44 24 50	 mov	 rax, QWORD PTR vm$[rsp]
  001c0	0f b6 80 30 18
	00 00		 movzx	 eax, BYTE PTR [rax+6192]
  001c7	48 8b 4c 24 50	 mov	 rcx, QWORD PTR vm$[rsp]
  001cc	48 83 c1 30	 add	 rcx, 48			; 00000030H
  001d0	4c 8b 44 24 38	 mov	 r8, QWORD PTR pointer$[rsp]
  001d5	8b d0		 mov	 edx, eax
  001d7	e8 00 00 00 00	 call	 simple_itemarray_setpointer
; Line 439
  001dc	48 8b 44 24 50	 mov	 rax, QWORD PTR vm$[rsp]
  001e1	0f b6 80 30 18
	00 00		 movzx	 eax, BYTE PTR [rax+6192]
  001e8	48 6b c0 18	 imul	 rax, 24
  001ec	8b 4c 24 20	 mov	 ecx, DWORD PTR nType$[rsp]
  001f0	83 e1 03	 and	 ecx, 3
  001f3	c1 e1 05	 shl	 ecx, 5
  001f6	48 8b 54 24 50	 mov	 rdx, QWORD PTR vm$[rsp]
  001fb	8b 44 02 30	 mov	 eax, DWORD PTR [rdx+rax+48]
  001ff	83 e0 9f	 and	 eax, -97		; ffffff9fH
  00202	0b c1		 or	 eax, ecx
  00204	48 8b 4c 24 50	 mov	 rcx, QWORD PTR vm$[rsp]
  00209	0f b6 89 30 18
	00 00		 movzx	 ecx, BYTE PTR [rcx+6192]
  00210	48 6b c9 18	 imul	 rcx, 24
  00214	48 8b 54 24 50	 mov	 rdx, QWORD PTR vm$[rsp]
  00219	89 44 0a 30	 mov	 DWORD PTR [rdx+rcx+48], eax
$LN1@simple_vm_:
$LN2@simple_vm_:
$LN4@simple_vm_:
; Line 441
  0021d	48 83 c4 48	 add	 rsp, 72			; 00000048H
  00221	c3		 ret	 0
simple_vm_dup ENDP
_TEXT	ENDS
END
