; Listing generated by Microsoft (R) Optimizing Compiler Version 17.00.50727.1 

include listing.inc

INCLUDELIB LIBCMT
INCLUDELIB OLDNAMES

_BSS	SEGMENT
$SG82488 DB	01H DUP (?)
_BSS	ENDS
_DATA	SEGMENT
$SG82433 DB	0aH, 'Error (E2) : Out of Memory!', 0aH, 00H
	ORG $+2
$SG82455 DB	'%d', 0aH, ' ', 00H
	ORG $+3
$SG82457 DB	'%f ', 0aH, 00H
	ORG $+3
$SG82459 DB	'%p', 00H
	ORG $+5
$SG82679 DB	0aH, 'Error (E2) : Out of Memory!', 0aH, 00H
_DATA	ENDS
PUBLIC	simple_item_new_gc
PUBLIC	simple_item_delete_gc
PUBLIC	simple_item_settype_gc
PUBLIC	simple_item_print
PUBLIC	simple_item_content_delete_gc
PUBLIC	simple_itemarray_setint_gc
PUBLIC	simple_itemarray_setpointer_gc
PUBLIC	simple_itemarray_setdouble_gc
PUBLIC	simple_itemarray_setstsimple_gc
PUBLIC	simple_itemarray_setstring2_gc
PUBLIC	simple_item_setstsimple_gc
PUBLIC	simple_item_setdouble_gc
PUBLIC	simple_item_setpointer_gc
PUBLIC	simple_item_setint_gc
PUBLIC	simple_item_setstring2_gc
PUBLIC	simple_item_new
PUBLIC	simple_item_delete
PUBLIC	simple_item_settype
PUBLIC	simple_item_content_delete
PUBLIC	simple_itemarray_setint
PUBLIC	simple_itemarray_setpointer
PUBLIC	simple_itemarray_setdouble
PUBLIC	simple_itemarray_setstring
PUBLIC	simple_itemarray_setstring2
PUBLIC	simple_item_setstring
PUBLIC	simple_item_setdouble
PUBLIC	simple_item_setpointer
PUBLIC	simple_item_setint
PUBLIC	simple_item_setstring2
PUBLIC	simple_items_new_gc
PUBLIC	simple_items_delete_gc
PUBLIC	simple_items_print
PUBLIC	simple_items_new
PUBLIC	simple_items_delete
EXTRN	exit:PROC
EXTRN	printf:PROC
EXTRN	simple_string_new_gc:PROC
EXTRN	simple_string_delete_gc:PROC
EXTRN	simple_string_set_gc:PROC
EXTRN	simple_string_set2_gc:PROC
EXTRN	simple_string_print:PROC
EXTRN	simple_list_new_gc:PROC
EXTRN	simple_list_delete_gc:PROC
EXTRN	simple_list_print:PROC
EXTRN	simple_state_malloc:PROC
EXTRN	simple_state_free:PROC
EXTRN	simple_vm_gc_deleteitem_gc:PROC
EXTRN	__ImageBase:BYTE
EXTRN	_fltused:DWORD
pdata	SEGMENT
$pdata$simple_item_new_gc DD imagerel $LN4
	DD	imagerel $LN4+191
	DD	imagerel $unwind$simple_item_new_gc
$pdata$simple_item_delete_gc DD imagerel $LN3
	DD	imagerel $LN3+36
	DD	imagerel $unwind$simple_item_delete_gc
$pdata$simple_item_settype_gc DD imagerel $LN12
	DD	imagerel $LN12+360
	DD	imagerel $unwind$simple_item_settype_gc
$pdata$simple_item_print DD imagerel $LN12
	DD	imagerel $LN12+190
	DD	imagerel $unwind$simple_item_print
$pdata$simple_item_content_delete_gc DD imagerel $LN7
	DD	imagerel $LN7+196
	DD	imagerel $unwind$simple_item_content_delete_gc
$pdata$simple_itemarray_setint_gc DD imagerel $LN3
	DD	imagerel $LN3+130
	DD	imagerel $unwind$simple_itemarray_setint_gc
$pdata$simple_itemarray_setpointer_gc DD imagerel $LN3
	DD	imagerel $LN3+129
	DD	imagerel $unwind$simple_itemarray_setpointer_gc
$pdata$simple_itemarray_setdouble_gc DD imagerel $LN3
	DD	imagerel $LN3+135
	DD	imagerel $unwind$simple_itemarray_setdouble_gc
$pdata$simple_itemarray_setstsimple_gc DD imagerel $LN3
	DD	imagerel $LN3+102
	DD	imagerel $unwind$simple_itemarray_setstsimple_gc
$pdata$simple_itemarray_setstring2_gc DD imagerel $LN3
	DD	imagerel $LN3+107
	DD	imagerel $unwind$simple_itemarray_setstring2_gc
$pdata$simple_item_setstsimple_gc DD imagerel $LN3
	DD	imagerel $LN3+69
	DD	imagerel $unwind$simple_item_setstsimple_gc
$pdata$simple_item_setdouble_gc DD imagerel $LN3
	DD	imagerel $LN3+82
	DD	imagerel $unwind$simple_item_setdouble_gc
$pdata$simple_item_setpointer_gc DD imagerel $LN3
	DD	imagerel $LN3+76
	DD	imagerel $unwind$simple_item_setpointer_gc
$pdata$simple_item_setint_gc DD imagerel $LN3
	DD	imagerel $LN3+77
	DD	imagerel $unwind$simple_item_setint_gc
$pdata$simple_item_setstring2_gc DD imagerel $LN3
	DD	imagerel $LN3+79
	DD	imagerel $unwind$simple_item_setstring2_gc
$pdata$simple_item_new DD imagerel $LN3
	DD	imagerel $LN3+24
	DD	imagerel $unwind$simple_item_new
$pdata$simple_item_delete DD imagerel $LN3
	DD	imagerel $LN3+26
	DD	imagerel $unwind$simple_item_delete
$pdata$simple_item_settype DD imagerel $LN3
	DD	imagerel $LN3+35
	DD	imagerel $unwind$simple_item_settype
$pdata$simple_item_content_delete DD imagerel $LN3
	DD	imagerel $LN3+26
	DD	imagerel $unwind$simple_item_content_delete
$pdata$simple_itemarray_setint DD imagerel $LN3
	DD	imagerel $LN3+45
	DD	imagerel $unwind$simple_itemarray_setint
$pdata$simple_itemarray_setpointer DD imagerel $LN3
	DD	imagerel $LN3+45
	DD	imagerel $unwind$simple_itemarray_setpointer
$pdata$simple_itemarray_setdouble DD imagerel $LN3
	DD	imagerel $LN3+47
	DD	imagerel $unwind$simple_itemarray_setdouble
$pdata$simple_itemarray_setstring DD imagerel $LN3
	DD	imagerel $LN3+45
	DD	imagerel $unwind$simple_itemarray_setstring
$pdata$simple_itemarray_setstring2 DD imagerel $LN3
	DD	imagerel $LN3+58
	DD	imagerel $unwind$simple_itemarray_setstring2
$pdata$simple_item_setstring DD imagerel $LN3
	DD	imagerel $LN3+36
	DD	imagerel $unwind$simple_item_setstring
$pdata$simple_item_setdouble DD imagerel $LN3
	DD	imagerel $LN3+38
	DD	imagerel $unwind$simple_item_setdouble
$pdata$simple_item_setpointer DD imagerel $LN3
	DD	imagerel $LN3+36
	DD	imagerel $unwind$simple_item_setpointer
$pdata$simple_item_setint DD imagerel $LN3
	DD	imagerel $LN3+35
	DD	imagerel $unwind$simple_item_setint
$pdata$simple_item_setstring2 DD imagerel $LN3
	DD	imagerel $LN3+46
	DD	imagerel $unwind$simple_item_setstring2
$pdata$simple_items_new_gc DD imagerel $LN4
	DD	imagerel $LN4+112
	DD	imagerel $unwind$simple_items_new_gc
$pdata$simple_items_delete_gc DD imagerel $LN3
	DD	imagerel $LN3+74
	DD	imagerel $unwind$simple_items_delete_gc
$pdata$simple_items_print DD imagerel $LN3
	DD	imagerel $LN3+27
	DD	imagerel $unwind$simple_items_print
$pdata$simple_items_new DD imagerel $LN3
	DD	imagerel $LN3+16
	DD	imagerel $unwind$simple_items_new
$pdata$simple_items_delete DD imagerel $LN3
	DD	imagerel $LN3+26
	DD	imagerel $unwind$simple_items_delete
pdata	ENDS
xdata	SEGMENT
$unwind$simple_item_new_gc DD 010d01H
	DD	0620dH
$unwind$simple_item_delete_gc DD 010e01H
	DD	0420eH
$unwind$simple_item_settype_gc DD 011301H
	DD	06213H
$unwind$simple_item_print DD 010901H
	DD	06209H
$unwind$simple_item_content_delete_gc DD 010e01H
	DD	0620eH
$unwind$simple_itemarray_setint_gc DD 011801H
	DD	04218H
$unwind$simple_itemarray_setpointer_gc DD 011801H
	DD	04218H
$unwind$simple_itemarray_setdouble_gc DD 011901H
	DD	04219H
$unwind$simple_itemarray_setstsimple_gc DD 011801H
	DD	04218H
$unwind$simple_itemarray_setstring2_gc DD 011801H
	DD	04218H
$unwind$simple_item_setstsimple_gc DD 011301H
	DD	04213H
$unwind$simple_item_setdouble_gc DD 011401H
	DD	04214H
$unwind$simple_item_setpointer_gc DD 011301H
	DD	04213H
$unwind$simple_item_setint_gc DD 011301H
	DD	04213H
$unwind$simple_item_setstring2_gc DD 011801H
	DD	04218H
$unwind$simple_item_new DD 010801H
	DD	04208H
$unwind$simple_item_delete DD 010901H
	DD	04209H
$unwind$simple_item_settype DD 010d01H
	DD	0420dH
$unwind$simple_item_content_delete DD 010901H
	DD	04209H
$unwind$simple_itemarray_setint DD 011201H
	DD	04212H
$unwind$simple_itemarray_setpointer DD 011201H
	DD	04212H
$unwind$simple_itemarray_setdouble DD 011301H
	DD	04213H
$unwind$simple_itemarray_setstring DD 011201H
	DD	04212H
$unwind$simple_itemarray_setstring2 DD 011701H
	DD	06217H
$unwind$simple_item_setstring DD 010e01H
	DD	0420eH
$unwind$simple_item_setdouble DD 010f01H
	DD	0420fH
$unwind$simple_item_setpointer DD 010e01H
	DD	0420eH
$unwind$simple_item_setint DD 010d01H
	DD	0420dH
$unwind$simple_item_setstring2 DD 011301H
	DD	04213H
$unwind$simple_items_new_gc DD 010901H
	DD	06209H
$unwind$simple_items_delete_gc DD 010e01H
	DD	0420eH
$unwind$simple_items_print DD 010901H
	DD	04209H
$unwind$simple_items_new DD 010401H
	DD	04204H
$unwind$simple_items_delete DD 010901H
	DD	04209H
xdata	ENDS
; Function compile flags: /Odtp
_TEXT	SEGMENT
pItems$ = 48
simple_items_delete PROC
; File c:\users\thecarisma\documents\simple_github\simple\simple\sources\simple_item.c
; Line 337
$LN3:
  00000	48 89 4c 24 08	 mov	 QWORD PTR [rsp+8], rcx
  00005	48 83 ec 28	 sub	 rsp, 40			; 00000028H
; Line 338
  00009	48 8b 54 24 30	 mov	 rdx, QWORD PTR pItems$[rsp]
  0000e	33 c9		 xor	 ecx, ecx
  00010	e8 00 00 00 00	 call	 simple_items_delete_gc
; Line 339
  00015	48 83 c4 28	 add	 rsp, 40			; 00000028H
  00019	c3		 ret	 0
simple_items_delete ENDP
_TEXT	ENDS
; Function compile flags: /Odtp
_TEXT	SEGMENT
simple_items_new PROC
; File c:\users\thecarisma\documents\simple_github\simple\simple\sources\simple_item.c
; Line 332
$LN3:
  00000	48 83 ec 28	 sub	 rsp, 40			; 00000028H
; Line 333
  00004	33 c9		 xor	 ecx, ecx
  00006	e8 00 00 00 00	 call	 simple_items_new_gc
; Line 334
  0000b	48 83 c4 28	 add	 rsp, 40			; 00000028H
  0000f	c3		 ret	 0
simple_items_new ENDP
_TEXT	ENDS
; Function compile flags: /Odtp
_TEXT	SEGMENT
pItems$ = 48
simple_items_print PROC
; File c:\users\thecarisma\documents\simple_github\simple\simple\sources\simple_item.c
; Line 325
$LN3:
  00000	48 89 4c 24 08	 mov	 QWORD PTR [rsp+8], rcx
  00005	48 83 ec 28	 sub	 rsp, 40			; 00000028H
; Line 327
  00009	48 8b 44 24 30	 mov	 rax, QWORD PTR pItems$[rsp]
  0000e	48 8b 08	 mov	 rcx, QWORD PTR [rax]
  00011	e8 00 00 00 00	 call	 simple_item_print
; Line 328
  00016	48 83 c4 28	 add	 rsp, 40			; 00000028H
  0001a	c3		 ret	 0
simple_items_print ENDP
_TEXT	ENDS
; Function compile flags: /Odtp
_TEXT	SEGMENT
pState$ = 48
pItems$ = 56
simple_items_delete_gc PROC
; File c:\users\thecarisma\documents\simple_github\simple\simple\sources\simple_item.c
; Line 316
$LN3:
  00000	48 89 54 24 10	 mov	 QWORD PTR [rsp+16], rdx
  00005	48 89 4c 24 08	 mov	 QWORD PTR [rsp+8], rcx
  0000a	48 83 ec 28	 sub	 rsp, 40			; 00000028H
; Line 318
  0000e	48 8b 44 24 38	 mov	 rax, QWORD PTR pItems$[rsp]
  00013	48 8b 10	 mov	 rdx, QWORD PTR [rax]
  00016	48 8b 4c 24 30	 mov	 rcx, QWORD PTR pState$[rsp]
  0001b	e8 00 00 00 00	 call	 simple_item_delete_gc
  00020	48 8b 4c 24 38	 mov	 rcx, QWORD PTR pItems$[rsp]
  00025	48 89 01	 mov	 QWORD PTR [rcx], rax
; Line 319
  00028	48 8b 54 24 38	 mov	 rdx, QWORD PTR pItems$[rsp]
  0002d	48 8b 4c 24 30	 mov	 rcx, QWORD PTR pState$[rsp]
  00032	e8 00 00 00 00	 call	 simple_state_free
; Line 320
  00037	48 c7 44 24 38
	00 00 00 00	 mov	 QWORD PTR pItems$[rsp], 0
; Line 321
  00040	48 8b 44 24 38	 mov	 rax, QWORD PTR pItems$[rsp]
; Line 322
  00045	48 83 c4 28	 add	 rsp, 40			; 00000028H
  00049	c3		 ret	 0
simple_items_delete_gc ENDP
_TEXT	ENDS
; Function compile flags: /Odtp
_TEXT	SEGMENT
pItems$ = 32
pState$ = 64
simple_items_new_gc PROC
; File c:\users\thecarisma\documents\simple_github\simple\simple\sources\simple_item.c
; Line 302
$LN4:
  00000	48 89 4c 24 08	 mov	 QWORD PTR [rsp+8], rcx
  00005	48 83 ec 38	 sub	 rsp, 56			; 00000038H
; Line 304
  00009	ba 18 00 00 00	 mov	 edx, 24
  0000e	48 8b 4c 24 40	 mov	 rcx, QWORD PTR pState$[rsp]
  00013	e8 00 00 00 00	 call	 simple_state_malloc
  00018	48 89 44 24 20	 mov	 QWORD PTR pItems$[rsp], rax
; Line 305
  0001d	48 83 7c 24 20
	00		 cmp	 QWORD PTR pItems$[rsp], 0
  00023	75 13		 jne	 SHORT $LN1@simple_ite
; Line 306
  00025	48 8d 0d 00 00
	00 00		 lea	 rcx, OFFSET FLAT:$SG82679
  0002c	e8 00 00 00 00	 call	 printf
; Line 307
  00031	33 c9		 xor	 ecx, ecx
  00033	e8 00 00 00 00	 call	 exit
$LN1@simple_ite:
; Line 309
  00038	33 d2		 xor	 edx, edx
  0003a	48 8b 4c 24 40	 mov	 rcx, QWORD PTR pState$[rsp]
  0003f	e8 00 00 00 00	 call	 simple_item_new_gc
  00044	48 8b 4c 24 20	 mov	 rcx, QWORD PTR pItems$[rsp]
  00049	48 89 01	 mov	 QWORD PTR [rcx], rax
; Line 310
  0004c	48 8b 44 24 20	 mov	 rax, QWORD PTR pItems$[rsp]
  00051	48 c7 40 08 00
	00 00 00	 mov	 QWORD PTR [rax+8], 0
; Line 311
  00059	48 8b 44 24 20	 mov	 rax, QWORD PTR pItems$[rsp]
  0005e	48 c7 40 10 00
	00 00 00	 mov	 QWORD PTR [rax+16], 0
; Line 312
  00066	48 8b 44 24 20	 mov	 rax, QWORD PTR pItems$[rsp]
$LN3@simple_ite:
; Line 313
  0006b	48 83 c4 38	 add	 rsp, 56			; 00000038H
  0006f	c3		 ret	 0
simple_items_new_gc ENDP
_TEXT	ENDS
; Function compile flags: /Odtp
_TEXT	SEGMENT
pItem$ = 48
cStr$ = 56
str_size$ = 64
simple_item_setstring2 PROC
; File c:\users\thecarisma\documents\simple_github\simple\simple\sources\simple_item.c
; Line 297
$LN3:
  00000	44 89 44 24 18	 mov	 DWORD PTR [rsp+24], r8d
  00005	48 89 54 24 10	 mov	 QWORD PTR [rsp+16], rdx
  0000a	48 89 4c 24 08	 mov	 QWORD PTR [rsp+8], rcx
  0000f	48 83 ec 28	 sub	 rsp, 40			; 00000028H
; Line 298
  00013	44 8b 4c 24 40	 mov	 r9d, DWORD PTR str_size$[rsp]
  00018	4c 8b 44 24 38	 mov	 r8, QWORD PTR cStr$[rsp]
  0001d	48 8b 54 24 30	 mov	 rdx, QWORD PTR pItem$[rsp]
  00022	33 c9		 xor	 ecx, ecx
  00024	e8 00 00 00 00	 call	 simple_item_setstring2_gc
; Line 299
  00029	48 83 c4 28	 add	 rsp, 40			; 00000028H
  0002d	c3		 ret	 0
simple_item_setstring2 ENDP
_TEXT	ENDS
; Function compile flags: /Odtp
_TEXT	SEGMENT
pItem$ = 48
x$ = 56
simple_item_setint PROC
; File c:\users\thecarisma\documents\simple_github\simple\simple\sources\simple_item.c
; Line 292
$LN3:
  00000	89 54 24 10	 mov	 DWORD PTR [rsp+16], edx
  00004	48 89 4c 24 08	 mov	 QWORD PTR [rsp+8], rcx
  00009	48 83 ec 28	 sub	 rsp, 40			; 00000028H
; Line 293
  0000d	44 8b 44 24 38	 mov	 r8d, DWORD PTR x$[rsp]
  00012	48 8b 54 24 30	 mov	 rdx, QWORD PTR pItem$[rsp]
  00017	33 c9		 xor	 ecx, ecx
  00019	e8 00 00 00 00	 call	 simple_item_setint_gc
; Line 294
  0001e	48 83 c4 28	 add	 rsp, 40			; 00000028H
  00022	c3		 ret	 0
simple_item_setint ENDP
_TEXT	ENDS
; Function compile flags: /Odtp
_TEXT	SEGMENT
pItem$ = 48
pValue$ = 56
simple_item_setpointer PROC
; File c:\users\thecarisma\documents\simple_github\simple\simple\sources\simple_item.c
; Line 287
$LN3:
  00000	48 89 54 24 10	 mov	 QWORD PTR [rsp+16], rdx
  00005	48 89 4c 24 08	 mov	 QWORD PTR [rsp+8], rcx
  0000a	48 83 ec 28	 sub	 rsp, 40			; 00000028H
; Line 288
  0000e	4c 8b 44 24 38	 mov	 r8, QWORD PTR pValue$[rsp]
  00013	48 8b 54 24 30	 mov	 rdx, QWORD PTR pItem$[rsp]
  00018	33 c9		 xor	 ecx, ecx
  0001a	e8 00 00 00 00	 call	 simple_item_setpointer_gc
; Line 289
  0001f	48 83 c4 28	 add	 rsp, 40			; 00000028H
  00023	c3		 ret	 0
simple_item_setpointer ENDP
_TEXT	ENDS
; Function compile flags: /Odtp
_TEXT	SEGMENT
pItem$ = 48
x$ = 56
simple_item_setdouble PROC
; File c:\users\thecarisma\documents\simple_github\simple\simple\sources\simple_item.c
; Line 282
$LN3:
  00000	f2 0f 11 4c 24
	10		 movsdx	 QWORD PTR [rsp+16], xmm1
  00006	48 89 4c 24 08	 mov	 QWORD PTR [rsp+8], rcx
  0000b	48 83 ec 28	 sub	 rsp, 40			; 00000028H
; Line 283
  0000f	f2 0f 10 54 24
	38		 movsdx	 xmm2, QWORD PTR x$[rsp]
  00015	48 8b 54 24 30	 mov	 rdx, QWORD PTR pItem$[rsp]
  0001a	33 c9		 xor	 ecx, ecx
  0001c	e8 00 00 00 00	 call	 simple_item_setdouble_gc
; Line 284
  00021	48 83 c4 28	 add	 rsp, 40			; 00000028H
  00025	c3		 ret	 0
simple_item_setdouble ENDP
_TEXT	ENDS
; Function compile flags: /Odtp
_TEXT	SEGMENT
pItem$ = 48
cStr$ = 56
simple_item_setstring PROC
; File c:\users\thecarisma\documents\simple_github\simple\simple\sources\simple_item.c
; Line 277
$LN3:
  00000	48 89 54 24 10	 mov	 QWORD PTR [rsp+16], rdx
  00005	48 89 4c 24 08	 mov	 QWORD PTR [rsp+8], rcx
  0000a	48 83 ec 28	 sub	 rsp, 40			; 00000028H
; Line 278
  0000e	4c 8b 44 24 38	 mov	 r8, QWORD PTR cStr$[rsp]
  00013	48 8b 54 24 30	 mov	 rdx, QWORD PTR pItem$[rsp]
  00018	33 c9		 xor	 ecx, ecx
  0001a	e8 00 00 00 00	 call	 simple_item_setstsimple_gc
; Line 279
  0001f	48 83 c4 28	 add	 rsp, 40			; 00000028H
  00023	c3		 ret	 0
simple_item_setstring ENDP
_TEXT	ENDS
; Function compile flags: /Odtp
_TEXT	SEGMENT
list$ = 64
index$ = 72
str$ = 80
str_size$ = 88
simple_itemarray_setstring2 PROC
; File c:\users\thecarisma\documents\simple_github\simple\simple\sources\simple_item.c
; Line 271
$LN3:
  00000	44 89 4c 24 20	 mov	 DWORD PTR [rsp+32], r9d
  00005	4c 89 44 24 18	 mov	 QWORD PTR [rsp+24], r8
  0000a	89 54 24 10	 mov	 DWORD PTR [rsp+16], edx
  0000e	48 89 4c 24 08	 mov	 QWORD PTR [rsp+8], rcx
  00013	48 83 ec 38	 sub	 rsp, 56			; 00000038H
; Line 272
  00017	8b 44 24 58	 mov	 eax, DWORD PTR str_size$[rsp]
  0001b	89 44 24 20	 mov	 DWORD PTR [rsp+32], eax
  0001f	4c 8b 4c 24 50	 mov	 r9, QWORD PTR str$[rsp]
  00024	44 8b 44 24 48	 mov	 r8d, DWORD PTR index$[rsp]
  00029	48 8b 54 24 40	 mov	 rdx, QWORD PTR list$[rsp]
  0002e	33 c9		 xor	 ecx, ecx
  00030	e8 00 00 00 00	 call	 simple_itemarray_setstring2_gc
; Line 273
  00035	48 83 c4 38	 add	 rsp, 56			; 00000038H
  00039	c3		 ret	 0
simple_itemarray_setstring2 ENDP
_TEXT	ENDS
; Function compile flags: /Odtp
_TEXT	SEGMENT
list$ = 48
index$ = 56
str$ = 64
simple_itemarray_setstring PROC
; File c:\users\thecarisma\documents\simple_github\simple\simple\sources\simple_item.c
; Line 266
$LN3:
  00000	4c 89 44 24 18	 mov	 QWORD PTR [rsp+24], r8
  00005	89 54 24 10	 mov	 DWORD PTR [rsp+16], edx
  00009	48 89 4c 24 08	 mov	 QWORD PTR [rsp+8], rcx
  0000e	48 83 ec 28	 sub	 rsp, 40			; 00000028H
; Line 267
  00012	4c 8b 4c 24 40	 mov	 r9, QWORD PTR str$[rsp]
  00017	44 8b 44 24 38	 mov	 r8d, DWORD PTR index$[rsp]
  0001c	48 8b 54 24 30	 mov	 rdx, QWORD PTR list$[rsp]
  00021	33 c9		 xor	 ecx, ecx
  00023	e8 00 00 00 00	 call	 simple_itemarray_setstsimple_gc
; Line 268
  00028	48 83 c4 28	 add	 rsp, 40			; 00000028H
  0002c	c3		 ret	 0
simple_itemarray_setstring ENDP
_TEXT	ENDS
; Function compile flags: /Odtp
_TEXT	SEGMENT
list$ = 48
index$ = 56
number$ = 64
simple_itemarray_setdouble PROC
; File c:\users\thecarisma\documents\simple_github\simple\simple\sources\simple_item.c
; Line 260
$LN3:
  00000	f2 0f 11 54 24
	18		 movsdx	 QWORD PTR [rsp+24], xmm2
  00006	89 54 24 10	 mov	 DWORD PTR [rsp+16], edx
  0000a	48 89 4c 24 08	 mov	 QWORD PTR [rsp+8], rcx
  0000f	48 83 ec 28	 sub	 rsp, 40			; 00000028H
; Line 261
  00013	f2 0f 10 5c 24
	40		 movsdx	 xmm3, QWORD PTR number$[rsp]
  00019	44 8b 44 24 38	 mov	 r8d, DWORD PTR index$[rsp]
  0001e	48 8b 54 24 30	 mov	 rdx, QWORD PTR list$[rsp]
  00023	33 c9		 xor	 ecx, ecx
  00025	e8 00 00 00 00	 call	 simple_itemarray_setdouble_gc
; Line 262
  0002a	48 83 c4 28	 add	 rsp, 40			; 00000028H
  0002e	c3		 ret	 0
simple_itemarray_setdouble ENDP
_TEXT	ENDS
; Function compile flags: /Odtp
_TEXT	SEGMENT
list$ = 48
index$ = 56
pValue$ = 64
simple_itemarray_setpointer PROC
; File c:\users\thecarisma\documents\simple_github\simple\simple\sources\simple_item.c
; Line 254
$LN3:
  00000	4c 89 44 24 18	 mov	 QWORD PTR [rsp+24], r8
  00005	89 54 24 10	 mov	 DWORD PTR [rsp+16], edx
  00009	48 89 4c 24 08	 mov	 QWORD PTR [rsp+8], rcx
  0000e	48 83 ec 28	 sub	 rsp, 40			; 00000028H
; Line 255
  00012	4c 8b 4c 24 40	 mov	 r9, QWORD PTR pValue$[rsp]
  00017	44 8b 44 24 38	 mov	 r8d, DWORD PTR index$[rsp]
  0001c	48 8b 54 24 30	 mov	 rdx, QWORD PTR list$[rsp]
  00021	33 c9		 xor	 ecx, ecx
  00023	e8 00 00 00 00	 call	 simple_itemarray_setpointer_gc
; Line 256
  00028	48 83 c4 28	 add	 rsp, 40			; 00000028H
  0002c	c3		 ret	 0
simple_itemarray_setpointer ENDP
_TEXT	ENDS
; Function compile flags: /Odtp
_TEXT	SEGMENT
list$ = 48
index$ = 56
number$ = 64
simple_itemarray_setint PROC
; File c:\users\thecarisma\documents\simple_github\simple\simple\sources\simple_item.c
; Line 248
$LN3:
  00000	44 89 44 24 18	 mov	 DWORD PTR [rsp+24], r8d
  00005	89 54 24 10	 mov	 DWORD PTR [rsp+16], edx
  00009	48 89 4c 24 08	 mov	 QWORD PTR [rsp+8], rcx
  0000e	48 83 ec 28	 sub	 rsp, 40			; 00000028H
; Line 249
  00012	44 8b 4c 24 40	 mov	 r9d, DWORD PTR number$[rsp]
  00017	44 8b 44 24 38	 mov	 r8d, DWORD PTR index$[rsp]
  0001c	48 8b 54 24 30	 mov	 rdx, QWORD PTR list$[rsp]
  00021	33 c9		 xor	 ecx, ecx
  00023	e8 00 00 00 00	 call	 simple_itemarray_setint_gc
; Line 250
  00028	48 83 c4 28	 add	 rsp, 40			; 00000028H
  0002c	c3		 ret	 0
simple_itemarray_setint ENDP
_TEXT	ENDS
; Function compile flags: /Odtp
_TEXT	SEGMENT
pItem$ = 48
simple_item_content_delete PROC
; File c:\users\thecarisma\documents\simple_github\simple\simple\sources\simple_item.c
; Line 239
$LN3:
  00000	48 89 4c 24 08	 mov	 QWORD PTR [rsp+8], rcx
  00005	48 83 ec 28	 sub	 rsp, 40			; 00000028H
; Line 240
  00009	48 8b 54 24 30	 mov	 rdx, QWORD PTR pItem$[rsp]
  0000e	33 c9		 xor	 ecx, ecx
  00010	e8 00 00 00 00	 call	 simple_item_content_delete_gc
; Line 241
  00015	48 83 c4 28	 add	 rsp, 40			; 00000028H
  00019	c3		 ret	 0
simple_item_content_delete ENDP
_TEXT	ENDS
; Function compile flags: /Odtp
_TEXT	SEGMENT
pItem$ = 48
ItemType$ = 56
simple_item_settype PROC
; File c:\users\thecarisma\documents\simple_github\simple\simple\sources\simple_item.c
; Line 234
$LN3:
  00000	89 54 24 10	 mov	 DWORD PTR [rsp+16], edx
  00004	48 89 4c 24 08	 mov	 QWORD PTR [rsp+8], rcx
  00009	48 83 ec 28	 sub	 rsp, 40			; 00000028H
; Line 235
  0000d	44 8b 44 24 38	 mov	 r8d, DWORD PTR ItemType$[rsp]
  00012	48 8b 54 24 30	 mov	 rdx, QWORD PTR pItem$[rsp]
  00017	33 c9		 xor	 ecx, ecx
  00019	e8 00 00 00 00	 call	 simple_item_settype_gc
; Line 236
  0001e	48 83 c4 28	 add	 rsp, 40			; 00000028H
  00022	c3		 ret	 0
simple_item_settype ENDP
_TEXT	ENDS
; Function compile flags: /Odtp
_TEXT	SEGMENT
pItem$ = 48
simple_item_delete PROC
; File c:\users\thecarisma\documents\simple_github\simple\simple\sources\simple_item.c
; Line 229
$LN3:
  00000	48 89 4c 24 08	 mov	 QWORD PTR [rsp+8], rcx
  00005	48 83 ec 28	 sub	 rsp, 40			; 00000028H
; Line 230
  00009	48 8b 54 24 30	 mov	 rdx, QWORD PTR pItem$[rsp]
  0000e	33 c9		 xor	 ecx, ecx
  00010	e8 00 00 00 00	 call	 simple_item_delete_gc
; Line 231
  00015	48 83 c4 28	 add	 rsp, 40			; 00000028H
  00019	c3		 ret	 0
simple_item_delete ENDP
_TEXT	ENDS
; Function compile flags: /Odtp
_TEXT	SEGMENT
ItemType$ = 48
simple_item_new PROC
; File c:\users\thecarisma\documents\simple_github\simple\simple\sources\simple_item.c
; Line 224
$LN3:
  00000	89 4c 24 08	 mov	 DWORD PTR [rsp+8], ecx
  00004	48 83 ec 28	 sub	 rsp, 40			; 00000028H
; Line 225
  00008	8b 54 24 30	 mov	 edx, DWORD PTR ItemType$[rsp]
  0000c	33 c9		 xor	 ecx, ecx
  0000e	e8 00 00 00 00	 call	 simple_item_new_gc
; Line 226
  00013	48 83 c4 28	 add	 rsp, 40			; 00000028H
  00017	c3		 ret	 0
simple_item_new ENDP
_TEXT	ENDS
; Function compile flags: /Odtp
_TEXT	SEGMENT
pState$ = 48
pItem$ = 56
cStr$ = 64
str_size$ = 72
simple_item_setstring2_gc PROC
; File c:\users\thecarisma\documents\simple_github\simple\simple\sources\simple_item.c
; Line 196
$LN3:
  00000	44 89 4c 24 20	 mov	 DWORD PTR [rsp+32], r9d
  00005	4c 89 44 24 18	 mov	 QWORD PTR [rsp+24], r8
  0000a	48 89 54 24 10	 mov	 QWORD PTR [rsp+16], rdx
  0000f	48 89 4c 24 08	 mov	 QWORD PTR [rsp+8], rcx
  00014	48 83 ec 28	 sub	 rsp, 40			; 00000028H
; Line 197
  00018	41 b8 01 00 00
	00		 mov	 r8d, 1
  0001e	48 8b 54 24 38	 mov	 rdx, QWORD PTR pItem$[rsp]
  00023	48 8b 4c 24 30	 mov	 rcx, QWORD PTR pState$[rsp]
  00028	e8 00 00 00 00	 call	 simple_item_settype_gc
; Line 198
  0002d	44 8b 4c 24 48	 mov	 r9d, DWORD PTR str_size$[rsp]
  00032	4c 8b 44 24 40	 mov	 r8, QWORD PTR cStr$[rsp]
  00037	48 8b 44 24 38	 mov	 rax, QWORD PTR pItem$[rsp]
  0003c	48 8b 50 08	 mov	 rdx, QWORD PTR [rax+8]
  00040	48 8b 4c 24 30	 mov	 rcx, QWORD PTR pState$[rsp]
  00045	e8 00 00 00 00	 call	 simple_string_set2_gc
; Line 199
  0004a	48 83 c4 28	 add	 rsp, 40			; 00000028H
  0004e	c3		 ret	 0
simple_item_setstring2_gc ENDP
_TEXT	ENDS
; Function compile flags: /Odtp
_TEXT	SEGMENT
pState$ = 48
pItem$ = 56
x$ = 64
simple_item_setint_gc PROC
; File c:\users\thecarisma\documents\simple_github\simple\simple\sources\simple_item.c
; Line 216
$LN3:
  00000	44 89 44 24 18	 mov	 DWORD PTR [rsp+24], r8d
  00005	48 89 54 24 10	 mov	 QWORD PTR [rsp+16], rdx
  0000a	48 89 4c 24 08	 mov	 QWORD PTR [rsp+8], rcx
  0000f	48 83 ec 28	 sub	 rsp, 40			; 00000028H
; Line 217
  00013	41 b8 02 00 00
	00		 mov	 r8d, 2
  00019	48 8b 54 24 38	 mov	 rdx, QWORD PTR pItem$[rsp]
  0001e	48 8b 4c 24 30	 mov	 rcx, QWORD PTR pState$[rsp]
  00023	e8 00 00 00 00	 call	 simple_item_settype_gc
; Line 218
  00028	48 8b 44 24 38	 mov	 rax, QWORD PTR pItem$[rsp]
  0002d	8b 4c 24 40	 mov	 ecx, DWORD PTR x$[rsp]
  00031	89 48 08	 mov	 DWORD PTR [rax+8], ecx
; Line 219
  00034	48 8b 44 24 38	 mov	 rax, QWORD PTR pItem$[rsp]
  00039	8b 00		 mov	 eax, DWORD PTR [rax]
  0003b	83 e0 e7	 and	 eax, -25		; ffffffe7H
  0003e	83 c8 08	 or	 eax, 8
  00041	48 8b 4c 24 38	 mov	 rcx, QWORD PTR pItem$[rsp]
  00046	89 01		 mov	 DWORD PTR [rcx], eax
; Line 220
  00048	48 83 c4 28	 add	 rsp, 40			; 00000028H
  0004c	c3		 ret	 0
simple_item_setint_gc ENDP
_TEXT	ENDS
; Function compile flags: /Odtp
_TEXT	SEGMENT
pState$ = 48
pItem$ = 56
pValue$ = 64
simple_item_setpointer_gc PROC
; File c:\users\thecarisma\documents\simple_github\simple\simple\sources\simple_item.c
; Line 209
$LN3:
  00000	4c 89 44 24 18	 mov	 QWORD PTR [rsp+24], r8
  00005	48 89 54 24 10	 mov	 QWORD PTR [rsp+16], rdx
  0000a	48 89 4c 24 08	 mov	 QWORD PTR [rsp+8], rcx
  0000f	48 83 ec 28	 sub	 rsp, 40			; 00000028H
; Line 210
  00013	41 b8 03 00 00
	00		 mov	 r8d, 3
  00019	48 8b 54 24 38	 mov	 rdx, QWORD PTR pItem$[rsp]
  0001e	48 8b 4c 24 30	 mov	 rcx, QWORD PTR pState$[rsp]
  00023	e8 00 00 00 00	 call	 simple_item_settype_gc
; Line 211
  00028	48 8b 44 24 38	 mov	 rax, QWORD PTR pItem$[rsp]
  0002d	48 8b 4c 24 40	 mov	 rcx, QWORD PTR pValue$[rsp]
  00032	48 89 48 08	 mov	 QWORD PTR [rax+8], rcx
; Line 212
  00036	48 8b 44 24 38	 mov	 rax, QWORD PTR pItem$[rsp]
  0003b	8b 00		 mov	 eax, DWORD PTR [rax]
  0003d	83 e0 9f	 and	 eax, -97		; ffffff9fH
  00040	48 8b 4c 24 38	 mov	 rcx, QWORD PTR pItem$[rsp]
  00045	89 01		 mov	 DWORD PTR [rcx], eax
; Line 213
  00047	48 83 c4 28	 add	 rsp, 40			; 00000028H
  0004b	c3		 ret	 0
simple_item_setpointer_gc ENDP
_TEXT	ENDS
; Function compile flags: /Odtp
_TEXT	SEGMENT
pState$ = 48
pItem$ = 56
x$ = 64
simple_item_setdouble_gc PROC
; File c:\users\thecarisma\documents\simple_github\simple\simple\sources\simple_item.c
; Line 202
$LN3:
  00000	f2 0f 11 54 24
	18		 movsdx	 QWORD PTR [rsp+24], xmm2
  00006	48 89 54 24 10	 mov	 QWORD PTR [rsp+16], rdx
  0000b	48 89 4c 24 08	 mov	 QWORD PTR [rsp+8], rcx
  00010	48 83 ec 28	 sub	 rsp, 40			; 00000028H
; Line 203
  00014	41 b8 02 00 00
	00		 mov	 r8d, 2
  0001a	48 8b 54 24 38	 mov	 rdx, QWORD PTR pItem$[rsp]
  0001f	48 8b 4c 24 30	 mov	 rcx, QWORD PTR pState$[rsp]
  00024	e8 00 00 00 00	 call	 simple_item_settype_gc
; Line 204
  00029	48 8b 44 24 38	 mov	 rax, QWORD PTR pItem$[rsp]
  0002e	f2 0f 10 44 24
	40		 movsdx	 xmm0, QWORD PTR x$[rsp]
  00034	f2 0f 11 40 08	 movsdx	 QWORD PTR [rax+8], xmm0
; Line 205
  00039	48 8b 44 24 38	 mov	 rax, QWORD PTR pItem$[rsp]
  0003e	8b 00		 mov	 eax, DWORD PTR [rax]
  00040	83 e0 e7	 and	 eax, -25		; ffffffe7H
  00043	83 c8 10	 or	 eax, 16
  00046	48 8b 4c 24 38	 mov	 rcx, QWORD PTR pItem$[rsp]
  0004b	89 01		 mov	 DWORD PTR [rcx], eax
; Line 206
  0004d	48 83 c4 28	 add	 rsp, 40			; 00000028H
  00051	c3		 ret	 0
simple_item_setdouble_gc ENDP
_TEXT	ENDS
; Function compile flags: /Odtp
_TEXT	SEGMENT
pState$ = 48
pItem$ = 56
cStr$ = 64
simple_item_setstsimple_gc PROC
; File c:\users\thecarisma\documents\simple_github\simple\simple\sources\simple_item.c
; Line 190
$LN3:
  00000	4c 89 44 24 18	 mov	 QWORD PTR [rsp+24], r8
  00005	48 89 54 24 10	 mov	 QWORD PTR [rsp+16], rdx
  0000a	48 89 4c 24 08	 mov	 QWORD PTR [rsp+8], rcx
  0000f	48 83 ec 28	 sub	 rsp, 40			; 00000028H
; Line 191
  00013	41 b8 01 00 00
	00		 mov	 r8d, 1
  00019	48 8b 54 24 38	 mov	 rdx, QWORD PTR pItem$[rsp]
  0001e	48 8b 4c 24 30	 mov	 rcx, QWORD PTR pState$[rsp]
  00023	e8 00 00 00 00	 call	 simple_item_settype_gc
; Line 192
  00028	4c 8b 44 24 40	 mov	 r8, QWORD PTR cStr$[rsp]
  0002d	48 8b 44 24 38	 mov	 rax, QWORD PTR pItem$[rsp]
  00032	48 8b 50 08	 mov	 rdx, QWORD PTR [rax+8]
  00036	48 8b 4c 24 30	 mov	 rcx, QWORD PTR pState$[rsp]
  0003b	e8 00 00 00 00	 call	 simple_string_set_gc
; Line 193
  00040	48 83 c4 28	 add	 rsp, 40			; 00000028H
  00044	c3		 ret	 0
simple_item_setstsimple_gc ENDP
_TEXT	ENDS
; Function compile flags: /Odtp
_TEXT	SEGMENT
pState$ = 48
list$ = 56
index$ = 64
str$ = 72
str_size$ = 80
simple_itemarray_setstring2_gc PROC
; File c:\users\thecarisma\documents\simple_github\simple\simple\sources\simple_item.c
; Line 183
$LN3:
  00000	4c 89 4c 24 20	 mov	 QWORD PTR [rsp+32], r9
  00005	44 89 44 24 18	 mov	 DWORD PTR [rsp+24], r8d
  0000a	48 89 54 24 10	 mov	 QWORD PTR [rsp+16], rdx
  0000f	48 89 4c 24 08	 mov	 QWORD PTR [rsp+8], rcx
  00014	48 83 ec 28	 sub	 rsp, 40			; 00000028H
; Line 184
  00018	48 63 44 24 40	 movsxd	 rax, DWORD PTR index$[rsp]
  0001d	48 6b c0 18	 imul	 rax, 24
  00021	48 8b 4c 24 38	 mov	 rcx, QWORD PTR list$[rsp]
  00026	48 03 c8	 add	 rcx, rax
  00029	48 8b c1	 mov	 rax, rcx
  0002c	41 b8 01 00 00
	00		 mov	 r8d, 1
  00032	48 8b d0	 mov	 rdx, rax
  00035	48 8b 4c 24 30	 mov	 rcx, QWORD PTR pState$[rsp]
  0003a	e8 00 00 00 00	 call	 simple_item_settype_gc
; Line 185
  0003f	48 63 44 24 40	 movsxd	 rax, DWORD PTR index$[rsp]
  00044	48 6b c0 18	 imul	 rax, 24
  00048	44 8b 4c 24 50	 mov	 r9d, DWORD PTR str_size$[rsp]
  0004d	4c 8b 44 24 48	 mov	 r8, QWORD PTR str$[rsp]
  00052	48 8b 4c 24 38	 mov	 rcx, QWORD PTR list$[rsp]
  00057	48 8b 54 01 08	 mov	 rdx, QWORD PTR [rcx+rax+8]
  0005c	48 8b 4c 24 30	 mov	 rcx, QWORD PTR pState$[rsp]
  00061	e8 00 00 00 00	 call	 simple_string_set2_gc
; Line 186
  00066	48 83 c4 28	 add	 rsp, 40			; 00000028H
  0006a	c3		 ret	 0
simple_itemarray_setstring2_gc ENDP
_TEXT	ENDS
; Function compile flags: /Odtp
_TEXT	SEGMENT
pState$ = 48
list$ = 56
index$ = 64
str$ = 72
simple_itemarray_setstsimple_gc PROC
; File c:\users\thecarisma\documents\simple_github\simple\simple\sources\simple_item.c
; Line 177
$LN3:
  00000	4c 89 4c 24 20	 mov	 QWORD PTR [rsp+32], r9
  00005	44 89 44 24 18	 mov	 DWORD PTR [rsp+24], r8d
  0000a	48 89 54 24 10	 mov	 QWORD PTR [rsp+16], rdx
  0000f	48 89 4c 24 08	 mov	 QWORD PTR [rsp+8], rcx
  00014	48 83 ec 28	 sub	 rsp, 40			; 00000028H
; Line 178
  00018	48 63 44 24 40	 movsxd	 rax, DWORD PTR index$[rsp]
  0001d	48 6b c0 18	 imul	 rax, 24
  00021	48 8b 4c 24 38	 mov	 rcx, QWORD PTR list$[rsp]
  00026	48 03 c8	 add	 rcx, rax
  00029	48 8b c1	 mov	 rax, rcx
  0002c	41 b8 01 00 00
	00		 mov	 r8d, 1
  00032	48 8b d0	 mov	 rdx, rax
  00035	48 8b 4c 24 30	 mov	 rcx, QWORD PTR pState$[rsp]
  0003a	e8 00 00 00 00	 call	 simple_item_settype_gc
; Line 179
  0003f	48 63 44 24 40	 movsxd	 rax, DWORD PTR index$[rsp]
  00044	48 6b c0 18	 imul	 rax, 24
  00048	4c 8b 44 24 48	 mov	 r8, QWORD PTR str$[rsp]
  0004d	48 8b 4c 24 38	 mov	 rcx, QWORD PTR list$[rsp]
  00052	48 8b 54 01 08	 mov	 rdx, QWORD PTR [rcx+rax+8]
  00057	48 8b 4c 24 30	 mov	 rcx, QWORD PTR pState$[rsp]
  0005c	e8 00 00 00 00	 call	 simple_string_set_gc
; Line 180
  00061	48 83 c4 28	 add	 rsp, 40			; 00000028H
  00065	c3		 ret	 0
simple_itemarray_setstsimple_gc ENDP
_TEXT	ENDS
; Function compile flags: /Odtp
_TEXT	SEGMENT
pState$ = 48
list$ = 56
index$ = 64
number$ = 72
simple_itemarray_setdouble_gc PROC
; File c:\users\thecarisma\documents\simple_github\simple\simple\sources\simple_item.c
; Line 161
$LN3:
  00000	f2 0f 11 5c 24
	20		 movsdx	 QWORD PTR [rsp+32], xmm3
  00006	44 89 44 24 18	 mov	 DWORD PTR [rsp+24], r8d
  0000b	48 89 54 24 10	 mov	 QWORD PTR [rsp+16], rdx
  00010	48 89 4c 24 08	 mov	 QWORD PTR [rsp+8], rcx
  00015	48 83 ec 28	 sub	 rsp, 40			; 00000028H
; Line 162
  00019	48 63 44 24 40	 movsxd	 rax, DWORD PTR index$[rsp]
  0001e	48 6b c0 18	 imul	 rax, 24
  00022	48 8b 4c 24 38	 mov	 rcx, QWORD PTR list$[rsp]
  00027	48 03 c8	 add	 rcx, rax
  0002a	48 8b c1	 mov	 rax, rcx
  0002d	41 b8 02 00 00
	00		 mov	 r8d, 2
  00033	48 8b d0	 mov	 rdx, rax
  00036	48 8b 4c 24 30	 mov	 rcx, QWORD PTR pState$[rsp]
  0003b	e8 00 00 00 00	 call	 simple_item_settype_gc
; Line 163
  00040	48 63 44 24 40	 movsxd	 rax, DWORD PTR index$[rsp]
  00045	48 6b c0 18	 imul	 rax, 24
  00049	48 8b 4c 24 38	 mov	 rcx, QWORD PTR list$[rsp]
  0004e	f2 0f 10 44 24
	48		 movsdx	 xmm0, QWORD PTR number$[rsp]
  00054	f2 0f 11 44 01
	08		 movsdx	 QWORD PTR [rcx+rax+8], xmm0
; Line 164
  0005a	48 63 44 24 40	 movsxd	 rax, DWORD PTR index$[rsp]
  0005f	48 6b c0 18	 imul	 rax, 24
  00063	48 8b 4c 24 38	 mov	 rcx, QWORD PTR list$[rsp]
  00068	8b 04 01	 mov	 eax, DWORD PTR [rcx+rax]
  0006b	83 e0 e7	 and	 eax, -25		; ffffffe7H
  0006e	83 c8 10	 or	 eax, 16
  00071	48 63 4c 24 40	 movsxd	 rcx, DWORD PTR index$[rsp]
  00076	48 6b c9 18	 imul	 rcx, 24
  0007a	48 8b 54 24 38	 mov	 rdx, QWORD PTR list$[rsp]
  0007f	89 04 0a	 mov	 DWORD PTR [rdx+rcx], eax
; Line 165
  00082	48 83 c4 28	 add	 rsp, 40			; 00000028H
  00086	c3		 ret	 0
simple_itemarray_setdouble_gc ENDP
_TEXT	ENDS
; Function compile flags: /Odtp
_TEXT	SEGMENT
pState$ = 48
list$ = 56
index$ = 64
pValue$ = 72
simple_itemarray_setpointer_gc PROC
; File c:\users\thecarisma\documents\simple_github\simple\simple\sources\simple_item.c
; Line 153
$LN3:
  00000	4c 89 4c 24 20	 mov	 QWORD PTR [rsp+32], r9
  00005	44 89 44 24 18	 mov	 DWORD PTR [rsp+24], r8d
  0000a	48 89 54 24 10	 mov	 QWORD PTR [rsp+16], rdx
  0000f	48 89 4c 24 08	 mov	 QWORD PTR [rsp+8], rcx
  00014	48 83 ec 28	 sub	 rsp, 40			; 00000028H
; Line 154
  00018	48 63 44 24 40	 movsxd	 rax, DWORD PTR index$[rsp]
  0001d	48 6b c0 18	 imul	 rax, 24
  00021	48 8b 4c 24 38	 mov	 rcx, QWORD PTR list$[rsp]
  00026	48 03 c8	 add	 rcx, rax
  00029	48 8b c1	 mov	 rax, rcx
  0002c	41 b8 03 00 00
	00		 mov	 r8d, 3
  00032	48 8b d0	 mov	 rdx, rax
  00035	48 8b 4c 24 30	 mov	 rcx, QWORD PTR pState$[rsp]
  0003a	e8 00 00 00 00	 call	 simple_item_settype_gc
; Line 155
  0003f	48 63 44 24 40	 movsxd	 rax, DWORD PTR index$[rsp]
  00044	48 6b c0 18	 imul	 rax, 24
  00048	48 8b 4c 24 38	 mov	 rcx, QWORD PTR list$[rsp]
  0004d	48 8b 54 24 48	 mov	 rdx, QWORD PTR pValue$[rsp]
  00052	48 89 54 01 08	 mov	 QWORD PTR [rcx+rax+8], rdx
; Line 156
  00057	48 63 44 24 40	 movsxd	 rax, DWORD PTR index$[rsp]
  0005c	48 6b c0 18	 imul	 rax, 24
  00060	48 8b 4c 24 38	 mov	 rcx, QWORD PTR list$[rsp]
  00065	8b 04 01	 mov	 eax, DWORD PTR [rcx+rax]
  00068	83 e0 9f	 and	 eax, -97		; ffffff9fH
  0006b	48 63 4c 24 40	 movsxd	 rcx, DWORD PTR index$[rsp]
  00070	48 6b c9 18	 imul	 rcx, 24
  00074	48 8b 54 24 38	 mov	 rdx, QWORD PTR list$[rsp]
  00079	89 04 0a	 mov	 DWORD PTR [rdx+rcx], eax
; Line 157
  0007c	48 83 c4 28	 add	 rsp, 40			; 00000028H
  00080	c3		 ret	 0
simple_itemarray_setpointer_gc ENDP
_TEXT	ENDS
; Function compile flags: /Odtp
_TEXT	SEGMENT
pState$ = 48
list$ = 56
index$ = 64
number$ = 72
simple_itemarray_setint_gc PROC
; File c:\users\thecarisma\documents\simple_github\simple\simple\sources\simple_item.c
; Line 145
$LN3:
  00000	44 89 4c 24 20	 mov	 DWORD PTR [rsp+32], r9d
  00005	44 89 44 24 18	 mov	 DWORD PTR [rsp+24], r8d
  0000a	48 89 54 24 10	 mov	 QWORD PTR [rsp+16], rdx
  0000f	48 89 4c 24 08	 mov	 QWORD PTR [rsp+8], rcx
  00014	48 83 ec 28	 sub	 rsp, 40			; 00000028H
; Line 146
  00018	48 63 44 24 40	 movsxd	 rax, DWORD PTR index$[rsp]
  0001d	48 6b c0 18	 imul	 rax, 24
  00021	48 8b 4c 24 38	 mov	 rcx, QWORD PTR list$[rsp]
  00026	48 03 c8	 add	 rcx, rax
  00029	48 8b c1	 mov	 rax, rcx
  0002c	41 b8 02 00 00
	00		 mov	 r8d, 2
  00032	48 8b d0	 mov	 rdx, rax
  00035	48 8b 4c 24 30	 mov	 rcx, QWORD PTR pState$[rsp]
  0003a	e8 00 00 00 00	 call	 simple_item_settype_gc
; Line 147
  0003f	48 63 44 24 40	 movsxd	 rax, DWORD PTR index$[rsp]
  00044	48 6b c0 18	 imul	 rax, 24
  00048	48 8b 4c 24 38	 mov	 rcx, QWORD PTR list$[rsp]
  0004d	8b 54 24 48	 mov	 edx, DWORD PTR number$[rsp]
  00051	89 54 01 08	 mov	 DWORD PTR [rcx+rax+8], edx
; Line 148
  00055	48 63 44 24 40	 movsxd	 rax, DWORD PTR index$[rsp]
  0005a	48 6b c0 18	 imul	 rax, 24
  0005e	48 8b 4c 24 38	 mov	 rcx, QWORD PTR list$[rsp]
  00063	8b 04 01	 mov	 eax, DWORD PTR [rcx+rax]
  00066	83 e0 e7	 and	 eax, -25		; ffffffe7H
  00069	83 c8 08	 or	 eax, 8
  0006c	48 63 4c 24 40	 movsxd	 rcx, DWORD PTR index$[rsp]
  00071	48 6b c9 18	 imul	 rcx, 24
  00075	48 8b 54 24 38	 mov	 rdx, QWORD PTR list$[rsp]
  0007a	89 04 0a	 mov	 DWORD PTR [rdx+rcx], eax
; Line 149
  0007d	48 83 c4 28	 add	 rsp, 40			; 00000028H
  00081	c3		 ret	 0
simple_itemarray_setint_gc ENDP
_TEXT	ENDS
; Function compile flags: /Odtp
_TEXT	SEGMENT
tv66 = 32
pState$ = 64
pItem$ = 72
simple_item_content_delete_gc PROC
; File c:\users\thecarisma\documents\simple_github\simple\simple\sources\simple_item.c
; Line 83
$LN7:
  00000	48 89 54 24 10	 mov	 QWORD PTR [rsp+16], rdx
  00005	48 89 4c 24 08	 mov	 QWORD PTR [rsp+8], rcx
  0000a	48 83 ec 38	 sub	 rsp, 56			; 00000038H
; Line 85
  0000e	48 8b 44 24 48	 mov	 rax, QWORD PTR pItem$[rsp]
  00013	8b 00		 mov	 eax, DWORD PTR [rax]
  00015	83 e0 07	 and	 eax, 7
  00018	89 44 24 20	 mov	 DWORD PTR tv66[rsp], eax
  0001c	83 7c 24 20 01	 cmp	 DWORD PTR tv66[rsp], 1
  00021	74 09		 je	 SHORT $LN2@simple_ite
  00023	83 7c 24 20 04	 cmp	 DWORD PTR tv66[rsp], 4
  00028	74 20		 je	 SHORT $LN1@simple_ite
  0002a	eb 3a		 jmp	 SHORT $LN3@simple_ite
$LN2@simple_ite:
; Line 88
  0002c	48 8b 44 24 48	 mov	 rax, QWORD PTR pItem$[rsp]
  00031	48 8b 50 08	 mov	 rdx, QWORD PTR [rax+8]
  00035	48 8b 4c 24 40	 mov	 rcx, QWORD PTR pState$[rsp]
  0003a	e8 00 00 00 00	 call	 simple_string_delete_gc
  0003f	48 8b 4c 24 48	 mov	 rcx, QWORD PTR pItem$[rsp]
  00044	48 89 41 08	 mov	 QWORD PTR [rcx+8], rax
; Line 89
  00048	eb 1c		 jmp	 SHORT $LN3@simple_ite
$LN1@simple_ite:
; Line 92
  0004a	48 8b 44 24 48	 mov	 rax, QWORD PTR pItem$[rsp]
  0004f	48 8b 50 08	 mov	 rdx, QWORD PTR [rax+8]
  00053	48 8b 4c 24 40	 mov	 rcx, QWORD PTR pState$[rsp]
  00058	e8 00 00 00 00	 call	 simple_list_delete_gc
  0005d	48 8b 4c 24 48	 mov	 rcx, QWORD PTR pItem$[rsp]
  00062	48 89 41 08	 mov	 QWORD PTR [rcx+8], rax
$LN3@simple_ite:
; Line 96
  00066	48 8b 44 24 48	 mov	 rax, QWORD PTR pItem$[rsp]
  0006b	8b 00		 mov	 eax, DWORD PTR [rax]
  0006d	83 e0 f8	 and	 eax, -8			; fffffff8H
  00070	48 8b 4c 24 48	 mov	 rcx, QWORD PTR pItem$[rsp]
  00075	89 01		 mov	 DWORD PTR [rcx], eax
; Line 98
  00077	48 8b 44 24 48	 mov	 rax, QWORD PTR pItem$[rsp]
  0007c	48 c7 40 08 00
	00 00 00	 mov	 QWORD PTR [rax+8], 0
; Line 99
  00084	48 8b 44 24 48	 mov	 rax, QWORD PTR pItem$[rsp]
  00089	8b 00		 mov	 eax, DWORD PTR [rax]
  0008b	83 e0 9f	 and	 eax, -97		; ffffff9fH
  0008e	48 8b 4c 24 48	 mov	 rcx, QWORD PTR pItem$[rsp]
  00093	89 01		 mov	 DWORD PTR [rcx], eax
; Line 101
  00095	48 8b 44 24 48	 mov	 rax, QWORD PTR pItem$[rsp]
  0009a	0f 57 c0	 xorps	 xmm0, xmm0
  0009d	f2 0f 11 40 08	 movsdx	 QWORD PTR [rax+8], xmm0
; Line 102
  000a2	48 8b 44 24 48	 mov	 rax, QWORD PTR pItem$[rsp]
  000a7	c7 40 08 00 00
	00 00		 mov	 DWORD PTR [rax+8], 0
; Line 103
  000ae	48 8b 44 24 48	 mov	 rax, QWORD PTR pItem$[rsp]
  000b3	8b 00		 mov	 eax, DWORD PTR [rax]
  000b5	83 e0 e7	 and	 eax, -25		; ffffffe7H
  000b8	48 8b 4c 24 48	 mov	 rcx, QWORD PTR pItem$[rsp]
  000bd	89 01		 mov	 DWORD PTR [rcx], eax
; Line 104
  000bf	48 83 c4 38	 add	 rsp, 56			; 00000038H
  000c3	c3		 ret	 0
simple_item_content_delete_gc ENDP
_TEXT	ENDS
; Function compile flags: /Odtp
_TEXT	SEGMENT
tv66 = 32
ItemType$ = 36
pItem$ = 64
simple_item_print PROC
; File c:\users\thecarisma\documents\simple_github\simple\simple\sources\simple_item.c
; Line 51
$LN12:
  00000	48 89 4c 24 08	 mov	 QWORD PTR [rsp+8], rcx
  00005	48 83 ec 38	 sub	 rsp, 56			; 00000038H
; Line 54
  00009	48 8b 44 24 40	 mov	 rax, QWORD PTR pItem$[rsp]
  0000e	8b 00		 mov	 eax, DWORD PTR [rax]
  00010	83 e0 07	 and	 eax, 7
  00013	89 44 24 24	 mov	 DWORD PTR ItemType$[rsp], eax
; Line 55
  00017	8b 44 24 24	 mov	 eax, DWORD PTR ItemType$[rsp]
  0001b	89 44 24 20	 mov	 DWORD PTR tv66[rsp], eax
  0001f	83 7c 24 20 01	 cmp	 DWORD PTR tv66[rsp], 1
  00024	74 19		 je	 SHORT $LN6@simple_ite
  00026	83 7c 24 20 02	 cmp	 DWORD PTR tv66[rsp], 2
  0002b	74 22		 je	 SHORT $LN5@simple_ite
  0002d	83 7c 24 20 03	 cmp	 DWORD PTR tv66[rsp], 3
  00032	74 60		 je	 SHORT $LN2@simple_ite
  00034	83 7c 24 20 04	 cmp	 DWORD PTR tv66[rsp], 4
  00039	74 70		 je	 SHORT $LN1@simple_ite
  0003b	eb 7c		 jmp	 SHORT $LN8@simple_ite
; Line 58
  0003d	eb 7a		 jmp	 SHORT $LN8@simple_ite
$LN6@simple_ite:
; Line 61
  0003f	48 8b 44 24 40	 mov	 rax, QWORD PTR pItem$[rsp]
  00044	48 8b 48 08	 mov	 rcx, QWORD PTR [rax+8]
  00048	e8 00 00 00 00	 call	 simple_string_print
; Line 62
  0004d	eb 6a		 jmp	 SHORT $LN8@simple_ite
$LN5@simple_ite:
; Line 65
  0004f	48 8b 44 24 40	 mov	 rax, QWORD PTR pItem$[rsp]
  00054	8b 00		 mov	 eax, DWORD PTR [rax]
  00056	c1 e8 03	 shr	 eax, 3
  00059	83 e0 03	 and	 eax, 3
  0005c	83 f8 01	 cmp	 eax, 1
  0005f	75 16		 jne	 SHORT $LN4@simple_ite
; Line 66
  00061	48 8b 44 24 40	 mov	 rax, QWORD PTR pItem$[rsp]
  00066	8b 50 08	 mov	 edx, DWORD PTR [rax+8]
  00069	48 8d 0d 00 00
	00 00		 lea	 rcx, OFFSET FLAT:$SG82455
  00070	e8 00 00 00 00	 call	 printf
; Line 67
  00075	eb 1b		 jmp	 SHORT $LN3@simple_ite
$LN4@simple_ite:
; Line 68
  00077	48 8b 44 24 40	 mov	 rax, QWORD PTR pItem$[rsp]
  0007c	f2 0f 10 48 08	 movsdx	 xmm1, QWORD PTR [rax+8]
  00081	66 48 0f 7e ca	 movd	 rdx, xmm1
  00086	48 8d 0d 00 00
	00 00		 lea	 rcx, OFFSET FLAT:$SG82457
  0008d	e8 00 00 00 00	 call	 printf
$LN3@simple_ite:
; Line 70
  00092	eb 25		 jmp	 SHORT $LN8@simple_ite
$LN2@simple_ite:
; Line 73
  00094	48 8b 44 24 40	 mov	 rax, QWORD PTR pItem$[rsp]
  00099	48 8b 50 08	 mov	 rdx, QWORD PTR [rax+8]
  0009d	48 8d 0d 00 00
	00 00		 lea	 rcx, OFFSET FLAT:$SG82459
  000a4	e8 00 00 00 00	 call	 printf
; Line 74
  000a9	eb 0e		 jmp	 SHORT $LN8@simple_ite
$LN1@simple_ite:
; Line 77
  000ab	48 8b 44 24 40	 mov	 rax, QWORD PTR pItem$[rsp]
  000b0	48 8b 48 08	 mov	 rcx, QWORD PTR [rax+8]
  000b4	e8 00 00 00 00	 call	 simple_list_print
$LN8@simple_ite:
; Line 80
  000b9	48 83 c4 38	 add	 rsp, 56			; 00000038H
  000bd	c3		 ret	 0
simple_item_print ENDP
_TEXT	ENDS
; Function compile flags: /Odtp
_TEXT	SEGMENT
tv66 = 32
pState$ = 64
pItem$ = 72
ItemType$ = 80
simple_item_settype_gc PROC
; File c:\users\thecarisma\documents\simple_github\simple\simple\sources\simple_item.c
; Line 107
$LN12:
  00000	44 89 44 24 18	 mov	 DWORD PTR [rsp+24], r8d
  00005	48 89 54 24 10	 mov	 QWORD PTR [rsp+16], rdx
  0000a	48 89 4c 24 08	 mov	 QWORD PTR [rsp+8], rcx
  0000f	48 83 ec 38	 sub	 rsp, 56			; 00000038H
; Line 110
  00013	48 8b 54 24 48	 mov	 rdx, QWORD PTR pItem$[rsp]
  00018	48 8b 4c 24 40	 mov	 rcx, QWORD PTR pState$[rsp]
  0001d	e8 00 00 00 00	 call	 simple_item_content_delete_gc
; Line 111
  00022	8b 44 24 50	 mov	 eax, DWORD PTR ItemType$[rsp]
  00026	89 44 24 20	 mov	 DWORD PTR tv66[rsp], eax
  0002a	83 7c 24 20 05	 cmp	 DWORD PTR tv66[rsp], 5
  0002f	0f 87 13 01 00
	00		 ja	 $LN7@simple_ite
  00035	48 63 44 24 20	 movsxd	 rax, DWORD PTR tv66[rsp]
  0003a	48 8d 0d 00 00
	00 00		 lea	 rcx, OFFSET FLAT:__ImageBase
  00041	8b 84 81 00 00
	00 00		 mov	 eax, DWORD PTR $LN11@simple_ite[rcx+rax*4]
  00048	48 03 c1	 add	 rax, rcx
  0004b	ff e0		 jmp	 rax
$LN6@simple_ite:
; Line 113
  0004d	48 8b 44 24 48	 mov	 rax, QWORD PTR pItem$[rsp]
  00052	8b 00		 mov	 eax, DWORD PTR [rax]
  00054	83 e0 f8	 and	 eax, -8			; fffffff8H
  00057	48 8b 4c 24 48	 mov	 rcx, QWORD PTR pItem$[rsp]
  0005c	89 01		 mov	 DWORD PTR [rcx], eax
; Line 114
  0005e	e9 e5 00 00 00	 jmp	 $LN7@simple_ite
$LN5@simple_ite:
; Line 116
  00063	48 8b 44 24 48	 mov	 rax, QWORD PTR pItem$[rsp]
  00068	8b 00		 mov	 eax, DWORD PTR [rax]
  0006a	83 e0 f8	 and	 eax, -8			; fffffff8H
  0006d	83 c8 01	 or	 eax, 1
  00070	48 8b 4c 24 48	 mov	 rcx, QWORD PTR pItem$[rsp]
  00075	89 01		 mov	 DWORD PTR [rcx], eax
; Line 117
  00077	48 8d 15 00 00
	00 00		 lea	 rdx, OFFSET FLAT:$SG82488
  0007e	48 8b 4c 24 40	 mov	 rcx, QWORD PTR pState$[rsp]
  00083	e8 00 00 00 00	 call	 simple_string_new_gc
  00088	48 8b 4c 24 48	 mov	 rcx, QWORD PTR pItem$[rsp]
  0008d	48 89 41 08	 mov	 QWORD PTR [rcx+8], rax
; Line 118
  00091	e9 b2 00 00 00	 jmp	 $LN7@simple_ite
$LN4@simple_ite:
; Line 120
  00096	48 8b 44 24 48	 mov	 rax, QWORD PTR pItem$[rsp]
  0009b	8b 00		 mov	 eax, DWORD PTR [rax]
  0009d	83 e0 f8	 and	 eax, -8			; fffffff8H
  000a0	83 c8 02	 or	 eax, 2
  000a3	48 8b 4c 24 48	 mov	 rcx, QWORD PTR pItem$[rsp]
  000a8	89 01		 mov	 DWORD PTR [rcx], eax
; Line 121
  000aa	48 8b 44 24 48	 mov	 rax, QWORD PTR pItem$[rsp]
  000af	0f 57 c0	 xorps	 xmm0, xmm0
  000b2	f2 0f 11 40 08	 movsdx	 QWORD PTR [rax+8], xmm0
; Line 122
  000b7	48 8b 44 24 48	 mov	 rax, QWORD PTR pItem$[rsp]
  000bc	c7 40 08 00 00
	00 00		 mov	 DWORD PTR [rax+8], 0
; Line 123
  000c3	e9 80 00 00 00	 jmp	 $LN7@simple_ite
$LN3@simple_ite:
; Line 125
  000c8	48 8b 44 24 48	 mov	 rax, QWORD PTR pItem$[rsp]
  000cd	8b 00		 mov	 eax, DWORD PTR [rax]
  000cf	83 e0 f8	 and	 eax, -8			; fffffff8H
  000d2	83 c8 03	 or	 eax, 3
  000d5	48 8b 4c 24 48	 mov	 rcx, QWORD PTR pItem$[rsp]
  000da	89 01		 mov	 DWORD PTR [rcx], eax
; Line 126
  000dc	48 8b 44 24 48	 mov	 rax, QWORD PTR pItem$[rsp]
  000e1	48 c7 40 08 00
	00 00 00	 mov	 QWORD PTR [rax+8], 0
; Line 127
  000e9	48 8b 44 24 48	 mov	 rax, QWORD PTR pItem$[rsp]
  000ee	8b 00		 mov	 eax, DWORD PTR [rax]
  000f0	83 e0 9f	 and	 eax, -97		; ffffff9fH
  000f3	48 8b 4c 24 48	 mov	 rcx, QWORD PTR pItem$[rsp]
  000f8	89 01		 mov	 DWORD PTR [rcx], eax
; Line 128
  000fa	eb 4c		 jmp	 SHORT $LN7@simple_ite
$LN2@simple_ite:
; Line 130
  000fc	48 8b 44 24 48	 mov	 rax, QWORD PTR pItem$[rsp]
  00101	8b 00		 mov	 eax, DWORD PTR [rax]
  00103	83 e0 f8	 and	 eax, -8			; fffffff8H
  00106	83 c8 04	 or	 eax, 4
  00109	48 8b 4c 24 48	 mov	 rcx, QWORD PTR pItem$[rsp]
  0010e	89 01		 mov	 DWORD PTR [rcx], eax
; Line 131
  00110	33 d2		 xor	 edx, edx
  00112	48 8b 4c 24 40	 mov	 rcx, QWORD PTR pState$[rsp]
  00117	e8 00 00 00 00	 call	 simple_list_new_gc
  0011c	48 8b 4c 24 48	 mov	 rcx, QWORD PTR pItem$[rsp]
  00121	48 89 41 08	 mov	 QWORD PTR [rcx+8], rax
; Line 132
  00125	eb 21		 jmp	 SHORT $LN7@simple_ite
$LN1@simple_ite:
; Line 134
  00127	48 8b 44 24 48	 mov	 rax, QWORD PTR pItem$[rsp]
  0012c	8b 00		 mov	 eax, DWORD PTR [rax]
  0012e	83 e0 f8	 and	 eax, -8			; fffffff8H
  00131	83 c8 05	 or	 eax, 5
  00134	48 8b 4c 24 48	 mov	 rcx, QWORD PTR pItem$[rsp]
  00139	89 01		 mov	 DWORD PTR [rcx], eax
; Line 135
  0013b	48 8b 44 24 48	 mov	 rax, QWORD PTR pItem$[rsp]
  00140	48 c7 40 08 00
	00 00 00	 mov	 QWORD PTR [rax+8], 0
$LN7@simple_ite:
; Line 138
  00148	48 83 c4 38	 add	 rsp, 56			; 00000038H
  0014c	c3		 ret	 0
  0014d	0f 1f 00	 npad	 3
$LN11@simple_ite:
  00150	00 00 00 00	 DD	 $LN6@simple_ite
  00154	00 00 00 00	 DD	 $LN5@simple_ite
  00158	00 00 00 00	 DD	 $LN4@simple_ite
  0015c	00 00 00 00	 DD	 $LN3@simple_ite
  00160	00 00 00 00	 DD	 $LN2@simple_ite
  00164	00 00 00 00	 DD	 $LN1@simple_ite
simple_item_settype_gc ENDP
_TEXT	ENDS
; Function compile flags: /Odtp
_TEXT	SEGMENT
pState$ = 48
pItem$ = 56
simple_item_delete_gc PROC
; File c:\users\thecarisma\documents\simple_github\simple\simple\sources\simple_item.c
; Line 44
$LN3:
  00000	48 89 54 24 10	 mov	 QWORD PTR [rsp+16], rdx
  00005	48 89 4c 24 08	 mov	 QWORD PTR [rsp+8], rcx
  0000a	48 83 ec 28	 sub	 rsp, 40			; 00000028H
; Line 46
  0000e	48 8b 54 24 38	 mov	 rdx, QWORD PTR pItem$[rsp]
  00013	48 8b 4c 24 30	 mov	 rcx, QWORD PTR pState$[rsp]
  00018	e8 00 00 00 00	 call	 simple_vm_gc_deleteitem_gc
; Line 47
  0001d	33 c0		 xor	 eax, eax
; Line 48
  0001f	48 83 c4 28	 add	 rsp, 40			; 00000028H
  00023	c3		 ret	 0
simple_item_delete_gc ENDP
_TEXT	ENDS
; Function compile flags: /Odtp
_TEXT	SEGMENT
pItem$ = 32
pState$ = 64
ItemType$ = 72
simple_item_new_gc PROC
; File c:\users\thecarisma\documents\simple_github\simple\simple\sources\simple_item.c
; Line 21
$LN4:
  00000	89 54 24 10	 mov	 DWORD PTR [rsp+16], edx
  00004	48 89 4c 24 08	 mov	 QWORD PTR [rsp+8], rcx
  00009	48 83 ec 38	 sub	 rsp, 56			; 00000038H
; Line 23
  0000d	ba 18 00 00 00	 mov	 edx, 24
  00012	48 8b 4c 24 40	 mov	 rcx, QWORD PTR pState$[rsp]
  00017	e8 00 00 00 00	 call	 simple_state_malloc
  0001c	48 89 44 24 20	 mov	 QWORD PTR pItem$[rsp], rax
; Line 24
  00021	48 83 7c 24 20
	00		 cmp	 QWORD PTR pItem$[rsp], 0
  00027	75 13		 jne	 SHORT $LN1@simple_ite
; Line 25
  00029	48 8d 0d 00 00
	00 00		 lea	 rcx, OFFSET FLAT:$SG82433
  00030	e8 00 00 00 00	 call	 printf
; Line 26
  00035	33 c9		 xor	 ecx, ecx
  00037	e8 00 00 00 00	 call	 exit
$LN1@simple_ite:
; Line 29
  0003c	48 8b 44 24 20	 mov	 rax, QWORD PTR pItem$[rsp]
  00041	8b 00		 mov	 eax, DWORD PTR [rax]
  00043	83 e0 f8	 and	 eax, -8			; fffffff8H
  00046	48 8b 4c 24 20	 mov	 rcx, QWORD PTR pItem$[rsp]
  0004b	89 01		 mov	 DWORD PTR [rcx], eax
; Line 31
  0004d	48 8b 44 24 20	 mov	 rax, QWORD PTR pItem$[rsp]
  00052	48 c7 40 08 00
	00 00 00	 mov	 QWORD PTR [rax+8], 0
; Line 32
  0005a	48 8b 44 24 20	 mov	 rax, QWORD PTR pItem$[rsp]
  0005f	8b 00		 mov	 eax, DWORD PTR [rax]
  00061	83 e0 9f	 and	 eax, -97		; ffffff9fH
  00064	48 8b 4c 24 20	 mov	 rcx, QWORD PTR pItem$[rsp]
  00069	89 01		 mov	 DWORD PTR [rcx], eax
; Line 34
  0006b	48 8b 44 24 20	 mov	 rax, QWORD PTR pItem$[rsp]
  00070	0f 57 c0	 xorps	 xmm0, xmm0
  00073	f2 0f 11 40 08	 movsdx	 QWORD PTR [rax+8], xmm0
; Line 35
  00078	48 8b 44 24 20	 mov	 rax, QWORD PTR pItem$[rsp]
  0007d	c7 40 08 00 00
	00 00		 mov	 DWORD PTR [rax+8], 0
; Line 36
  00084	48 8b 44 24 20	 mov	 rax, QWORD PTR pItem$[rsp]
  00089	8b 00		 mov	 eax, DWORD PTR [rax]
  0008b	83 e0 e7	 and	 eax, -25		; ffffffe7H
  0008e	48 8b 4c 24 20	 mov	 rcx, QWORD PTR pItem$[rsp]
  00093	89 01		 mov	 DWORD PTR [rcx], eax
; Line 38
  00095	48 8b 44 24 20	 mov	 rax, QWORD PTR pItem$[rsp]
  0009a	c7 40 10 00 00
	00 00		 mov	 DWORD PTR [rax+16], 0
; Line 39
  000a1	44 8b 44 24 48	 mov	 r8d, DWORD PTR ItemType$[rsp]
  000a6	48 8b 54 24 20	 mov	 rdx, QWORD PTR pItem$[rsp]
  000ab	48 8b 4c 24 40	 mov	 rcx, QWORD PTR pState$[rsp]
  000b0	e8 00 00 00 00	 call	 simple_item_settype_gc
; Line 40
  000b5	48 8b 44 24 20	 mov	 rax, QWORD PTR pItem$[rsp]
$LN3@simple_ite:
; Line 41
  000ba	48 83 c4 38	 add	 rsp, 56			; 00000038H
  000be	c3		 ret	 0
simple_item_new_gc ENDP
_TEXT	ENDS
END
